(lp0
S'The black pixels of a b/w image are at'
p1
a(I15
I200
tp2
a(I21
I308
tp3
a(I23
I310
tp4
a(I24
I314
tp5
a(I25
I308
tp6
a(I25
I318
tp7
a(I25
I431
tp8
a(I25
I441
tp9
a(I25
I451
tp10
a(I26
I310
tp11
a(I26
I320
tp12
a(I26
I429
tp13
a(I26
I439
tp14
a(I26
I449
tp15
a(I27
I305
tp16
a(I27
I315
tp17
a(I27
I325
tp18
a(I27
I423
tp19
a(I27
I433
tp20
a(I27
I443
tp21
a(I27
I453
tp22
a(I28
I303
tp23
a(I28
I313
tp24
a(I28
I323
tp25
a(I28
I333
tp26
a(I28
I419
tp27
a(I28
I429
tp28
a(I28
I439
tp29
a(I28
I449
tp30
a(I28
I459
tp31
a(I29
I304
tp32
a(I29
I323
tp33
a(I29
I333
tp34
a(I29
I417
tp35
a(I29
I427
tp36
a(I29
I454
tp37
a(I30
I128
tp38
a(I30
I311
tp39
a(I30
I333
tp40
a(I30
I343
tp41
a(I30
I414
tp42
a(I30
I424
tp43
a(I30
I456
tp44
a(I30
I471
tp45
a(I31
I130
tp46
a(I31
I339
tp47
a(I31
I349
tp48
a(I31
I414
tp49
a(I31
I460
tp50
a(I31
I474
tp51
a(I32
I129
tp52
a(I32
I343
tp53
a(I32
I353
tp54
a(I32
I363
tp55
a(I32
I411
tp56
a(I32
I461
tp57
a(I32
I471
tp58
a(I32
I481
tp59
a(I33
I135
tp60
a(I33
I346
tp61
a(I33
I356
tp62
a(I33
I366
tp63
a(I33
I411
tp64
a(I33
I464
tp65
a(I33
I474
tp66
a(I33
I484
tp67
a(I34
I305
tp68
a(I34
I318
tp69
a(I34
I352
tp70
a(I34
I362
tp71
a(I34
I372
tp72
a(I34
I382
tp73
a(I34
I411
tp74
a(I34
I470
tp75
a(I34
I485
tp76
a(I35
I307
tp77
a(I35
I317
tp78
a(I35
I327
tp79
a(I35
I337
tp80
a(I35
I347
tp81
a(I35
I357
tp82
a(I35
I379
tp83
a(I35
I405
tp84
a(I35
I466
tp85
a(I35
I484
tp86
a(I36
I306
tp87
a(I36
I316
tp88
a(I36
I326
tp89
a(I36
I336
tp90
a(I36
I346
tp91
a(I36
I356
tp92
a(I36
I400
tp93
a(I36
I466
tp94
a(I37
I125
tp95
a(I37
I307
tp96
a(I37
I327
tp97
a(I37
I337
tp98
a(I37
I347
tp99
a(I37
I357
tp100
a(I37
I398
tp101
a(I37
I438
tp102
a(I37
I486
tp103
a(I38
I305
tp104
a(I38
I334
tp105
a(I38
I346
tp106
a(I38
I356
tp107
a(I38
I366
tp108
a(I38
I396
tp109
a(I38
I425
tp110
a(I38
I435
tp111
a(I38
I448
tp112
a(I38
I487
tp113
a(I39
I306
tp114
a(I39
I375
tp115
a(I39
I402
tp116
a(I39
I431
tp117
a(I39
I441
tp118
a(I39
I485
tp119
a(I40
I137
tp120
a(I40
I375
tp121
a(I40
I394
tp122
a(I40
I417
tp123
a(I40
I427
tp124
a(I40
I437
tp125
a(I40
I447
tp126
a(I40
I487
tp127
a(I41
I306
tp128
a(I41
I383
tp129
a(I41
I414
tp130
a(I41
I424
tp131
a(I41
I434
tp132
a(I41
I444
tp133
a(I41
I485
tp134
a(I42
I305
tp135
a(I42
I396
tp136
a(I42
I415
tp137
a(I42
I425
tp138
a(I42
I444
tp139
a(I42
I478
tp140
a(I43
I137
tp141
a(I43
I397
tp142
a(I43
I417
tp143
a(I43
I427
tp144
a(I43
I447
tp145
a(I44
I128
tp146
a(I44
I394
tp147
a(I44
I414
tp148
a(I44
I442
tp149
a(I44
I479
tp150
a(I45
I306
tp151
a(I45
I397
tp152
a(I45
I417
tp153
a(I45
I446
tp154
a(I45
I484
tp155
a(I46
I389
tp156
a(I46
I409
tp157
a(I46
I442
tp158
a(I46
I487
tp159
a(I47
I390
tp160
a(I47
I409
tp161
a(I47
I482
tp162
a(I48
I137
tp163
a(I48
I394
tp164
a(I48
I430
tp165
a(I48
I485
tp166
a(I49
I387
tp167
a(I49
I405
tp168
a(I49
I456
tp169
a(I50
I131
tp170
a(I50
I391
tp171
a(I50
I409
tp172
a(I50
I485
tp173
a(I51
I388
tp174
a(I51
I407
tp175
a(I51
I485
tp176
a(I52
I307
tp177
a(I52
I395
tp178
a(I52
I482
tp179
a(I53
I241
tp180
a(I53
I393
tp181
a(I53
I483
tp182
a(I54
I307
tp183
a(I54
I394
tp184
a(I54
I486
tp185
a(I55
I237
tp186
a(I55
I389
tp187
a(I55
I430
tp188
a(I55
I440
tp189
a(I56
I137
tp190
a(I56
I387
tp191
a(I56
I427
tp192
a(I56
I437
tp193
a(I57
I70
tp194
a(I57
I309
tp195
a(I57
I394
tp196
a(I57
I424
tp197
a(I57
I434
tp198
a(I57
I484
tp199
a(I58
I235
tp200
a(I58
I390
tp201
a(I58
I417
tp202
a(I58
I427
tp203
a(I58
I437
tp204
a(I58
I488
tp205
a(I59
I73
tp206
a(I59
I386
tp207
a(I59
I409
tp208
a(I59
I419
tp209
a(I59
I429
tp210
a(I59
I439
tp211
a(I59
I489
tp212
a(I59
I503
tp213
a(I60
I308
tp214
a(I60
I400
tp215
a(I60
I417
tp216
a(I60
I427
tp217
a(I60
I437
tp218
a(I60
I487
tp219
a(I60
I499
tp220
a(I60
I509
tp221
a(I61
I388
tp222
a(I61
I410
tp223
a(I61
I420
tp224
a(I61
I430
tp225
a(I61
I440
tp226
a(I61
I488
tp227
a(I61
I498
tp228
a(I62
I75
tp229
a(I62
I272
tp230
a(I62
I395
tp231
a(I62
I409
tp232
a(I62
I420
tp233
a(I62
I430
tp234
a(I62
I440
tp235
a(I62
I485
tp236
a(I62
I495
tp237
a(I62
I507
tp238
a(I63
I271
tp239
a(I63
I396
tp240
a(I63
I410
tp241
a(I63
I424
tp242
a(I63
I434
tp243
a(I63
I444
tp244
a(I63
I489
tp245
a(I63
I499
tp246
a(I64
I263
tp247
a(I64
I394
tp248
a(I64
I406
tp249
a(I64
I425
tp250
a(I64
I435
tp251
a(I64
I445
tp252
a(I64
I486
tp253
a(I64
I496
tp254
a(I65
I256
tp255
a(I65
I308
tp256
a(I65
I397
tp257
a(I65
I407
tp258
a(I65
I427
tp259
a(I65
I437
tp260
a(I65
I447
tp261
a(I65
I488
tp262
a(I65
I498
tp263
a(I66
I258
tp264
a(I66
I387
tp265
a(I66
I405
tp266
a(I66
I428
tp267
a(I66
I438
tp268
a(I66
I448
tp269
a(I66
I489
tp270
a(I67
I228
tp271
a(I67
I308
tp272
a(I67
I391
tp273
a(I67
I401
tp274
a(I67
I427
tp275
a(I67
I437
tp276
a(I67
I447
tp277
a(I67
I487
tp278
a(I68
I228
tp279
a(I68
I309
tp280
a(I68
I392
tp281
a(I68
I423
tp282
a(I68
I433
tp283
a(I68
I443
tp284
a(I68
I453
tp285
a(I69
I227
tp286
a(I69
I308
tp287
a(I69
I391
tp288
a(I69
I423
tp289
a(I69
I433
tp290
a(I69
I443
tp291
a(I69
I453
tp292
a(I70
I227
tp293
a(I70
I309
tp294
a(I70
I392
tp295
a(I70
I428
tp296
a(I70
I438
tp297
a(I70
I448
tp298
a(I70
I486
tp299
a(I71
I251
tp300
a(I71
I387
tp301
a(I71
I427
tp302
a(I71
I437
tp303
a(I71
I447
tp304
a(I71
I485
tp305
a(I72
I251
tp306
a(I72
I385
tp307
a(I72
I410
tp308
a(I72
I435
tp309
a(I72
I445
tp310
a(I72
I455
tp311
a(I73
I246
tp312
a(I73
I382
tp313
a(I73
I428
tp314
a(I73
I438
tp315
a(I73
I448
tp316
a(I73
I485
tp317
a(I74
I307
tp318
a(I74
I382
tp319
a(I74
I431
tp320
a(I74
I441
tp321
a(I74
I451
tp322
a(I74
I487
tp323
a(I75
I249
tp324
a(I75
I378
tp325
a(I75
I411
tp326
a(I75
I438
tp327
a(I75
I448
tp328
a(I75
I458
tp329
a(I76
I243
tp330
a(I76
I373
tp331
a(I76
I413
tp332
a(I76
I440
tp333
a(I76
I450
tp334
a(I76
I460
tp335
a(I77
I244
tp336
a(I77
I374
tp337
a(I77
I434
tp338
a(I77
I444
tp339
a(I77
I454
tp340
a(I77
I485
tp341
a(I78
I307
tp342
a(I78
I374
tp343
a(I78
I436
tp344
a(I78
I446
tp345
a(I78
I456
tp346
a(I78
I485
tp347
a(I79
I308
tp348
a(I79
I375
tp349
a(I79
I436
tp350
a(I79
I446
tp351
a(I79
I456
tp352
a(I79
I483
tp353
a(I80
I308
tp354
a(I80
I376
tp355
a(I80
I438
tp356
a(I80
I448
tp357
a(I80
I458
tp358
a(I80
I484
tp359
a(I81
I365
tp360
a(I81
I435
tp361
a(I81
I445
tp362
a(I81
I455
tp363
a(I81
I465
tp364
a(I82
I246
tp365
a(I82
I366
tp366
a(I82
I435
tp367
a(I82
I445
tp368
a(I82
I455
tp369
a(I82
I465
tp370
a(I82
I490
tp371
a(I83
I365
tp372
a(I83
I439
tp373
a(I83
I449
tp374
a(I83
I459
tp375
a(I83
I479
tp376
a(I84
I309
tp377
a(I84
I365
tp378
a(I84
I437
tp379
a(I84
I447
tp380
a(I84
I457
tp381
a(I84
I467
tp382
a(I84
I477
tp383
a(I85
I309
tp384
a(I85
I401
tp385
a(I85
I442
tp386
a(I85
I452
tp387
a(I85
I462
tp388
a(I85
I472
tp389
a(I85
I490
tp390
a(I86
I359
tp391
a(I86
I436
tp392
a(I86
I446
tp393
a(I86
I456
tp394
a(I86
I466
tp395
a(I86
I476
tp396
a(I87
I354
tp397
a(I87
I403
tp398
a(I87
I444
tp399
a(I87
I454
tp400
a(I87
I464
tp401
a(I87
I474
tp402
a(I88
I310
tp403
a(I88
I360
tp404
a(I88
I442
tp405
a(I88
I452
tp406
a(I88
I462
tp407
a(I88
I472
tp408
a(I89
I351
tp409
a(I89
I381
tp410
a(I89
I441
tp411
a(I89
I451
tp412
a(I89
I461
tp413
a(I89
I471
tp414
a(I90
I349
tp415
a(I90
I359
tp416
a(I90
I441
tp417
a(I90
I451
tp418
a(I90
I461
tp419
a(I90
I471
tp420
a(I91
I348
tp421
a(I91
I420
tp422
a(I91
I446
tp423
a(I91
I456
tp424
a(I91
I466
tp425
a(I91
I490
tp426
a(I92
I351
tp427
a(I92
I420
tp428
a(I92
I445
tp429
a(I92
I455
tp430
a(I92
I465
tp431
a(I92
I488
tp432
a(I93
I349
tp433
a(I93
I437
tp434
a(I93
I447
tp435
a(I93
I457
tp436
a(I93
I467
tp437
a(I93
I489
tp438
a(I94
I346
tp439
a(I94
I406
tp440
a(I94
I444
tp441
a(I94
I454
tp442
a(I94
I464
tp443
a(I94
I474
tp444
a(I95
I341
tp445
a(I95
I385
tp446
a(I95
I443
tp447
a(I95
I453
tp448
a(I95
I463
tp449
a(I95
I473
tp450
a(I96
I308
tp451
a(I96
I347
tp452
a(I96
I439
tp453
a(I96
I449
tp454
a(I96
I459
tp455
a(I96
I469
tp456
a(I96
I487
tp457
a(I97
I342
tp458
a(I97
I407
tp459
a(I97
I444
tp460
a(I97
I454
tp461
a(I97
I464
tp462
a(I97
I474
tp463
a(I98
I308
tp464
a(I98
I364
tp465
a(I98
I443
tp466
a(I98
I453
tp467
a(I98
I463
tp468
a(I98
I473
tp469
a(I99
I69
tp470
a(I99
I340
tp471
a(I99
I408
tp472
a(I99
I444
tp473
a(I99
I454
tp474
a(I99
I464
tp475
a(I99
I474
tp476
a(I100
I306
tp477
a(I100
I341
tp478
a(I100
I424
tp479
a(I100
I447
tp480
a(I100
I457
tp481
a(I100
I467
tp482
a(I100
I477
tp483
a(I101
I309
tp484
a(I101
I342
tp485
a(I101
I439
tp486
a(I101
I449
tp487
a(I101
I459
tp488
a(I101
I469
tp489
a(I101
I479
tp490
a(I102
I330
tp491
a(I102
I340
tp492
a(I102
I390
tp493
a(I102
I442
tp494
a(I102
I452
tp495
a(I102
I462
tp496
a(I102
I472
tp497
a(I102
I482
tp498
a(I103
I331
tp499
a(I103
I345
tp500
a(I103
I440
tp501
a(I103
I450
tp502
a(I103
I460
tp503
a(I103
I470
tp504
a(I103
I480
tp505
a(I104
I308
tp506
a(I104
I337
tp507
a(I104
I426
tp508
a(I104
I446
tp509
a(I104
I456
tp510
a(I104
I466
tp511
a(I104
I476
tp512
a(I104
I488
tp513
a(I105
I331
tp514
a(I105
I368
tp515
a(I105
I441
tp516
a(I105
I451
tp517
a(I105
I461
tp518
a(I105
I471
tp519
a(I105
I481
tp520
a(I106
I307
tp521
a(I106
I332
tp522
a(I106
I370
tp523
a(I106
I442
tp524
a(I106
I452
tp525
a(I106
I462
tp526
a(I106
I472
tp527
a(I106
I482
tp528
a(I107
I308
tp529
a(I107
I334
tp530
a(I107
I411
tp531
a(I107
I444
tp532
a(I107
I454
tp533
a(I107
I464
tp534
a(I107
I474
tp535
a(I107
I484
tp536
a(I108
I324
tp537
a(I108
I347
tp538
a(I108
I440
tp539
a(I108
I450
tp540
a(I108
I460
tp541
a(I108
I470
tp542
a(I108
I480
tp543
a(I109
I305
tp544
a(I109
I328
tp545
a(I109
I371
tp546
a(I109
I441
tp547
a(I109
I451
tp548
a(I109
I461
tp549
a(I109
I471
tp550
a(I109
I481
tp551
a(I110
I227
tp552
a(I110
I326
tp553
a(I110
I392
tp554
a(I110
I443
tp555
a(I110
I453
tp556
a(I110
I463
tp557
a(I110
I473
tp558
a(I110
I483
tp559
a(I111
I222
tp560
a(I111
I232
tp561
a(I111
I320
tp562
a(I111
I330
tp563
a(I111
I414
tp564
a(I111
I445
tp565
a(I111
I455
tp566
a(I111
I465
tp567
a(I111
I475
tp568
a(I111
I485
tp569
a(I112
I222
tp570
a(I112
I232
tp571
a(I112
I307
tp572
a(I112
I329
tp573
a(I112
I430
tp574
a(I112
I448
tp575
a(I112
I458
tp576
a(I112
I468
tp577
a(I112
I478
tp578
a(I112
I488
tp579
a(I113
I221
tp580
a(I113
I231
tp581
a(I113
I304
tp582
a(I113
I324
tp583
a(I113
I373
tp584
a(I113
I442
tp585
a(I113
I452
tp586
a(I113
I462
tp587
a(I113
I472
tp588
a(I113
I482
tp589
a(I114
I215
tp590
a(I114
I227
tp591
a(I114
I237
tp592
a(I114
I318
tp593
a(I114
I328
tp594
a(I114
I414
tp595
a(I114
I445
tp596
a(I114
I455
tp597
a(I114
I465
tp598
a(I114
I475
tp599
a(I114
I485
tp600
a(I115
I215
tp601
a(I115
I306
tp602
a(I115
I325
tp603
a(I115
I415
tp604
a(I115
I447
tp605
a(I115
I457
tp606
a(I115
I467
tp607
a(I115
I477
tp608
a(I115
I487
tp609
a(I116
I213
tp610
a(I116
I306
tp611
a(I116
I324
tp612
a(I116
I395
tp613
a(I116
I444
tp614
a(I116
I454
tp615
a(I116
I464
tp616
a(I116
I474
tp617
a(I116
I484
tp618
a(I117
I208
tp619
a(I117
I244
tp620
a(I117
I319
tp621
a(I117
I352
tp622
a(I117
I439
tp623
a(I117
I449
tp624
a(I117
I459
tp625
a(I117
I469
tp626
a(I117
I479
tp627
a(I117
I489
tp628
a(I118
I207
tp629
a(I118
I247
tp630
a(I118
I320
tp631
a(I118
I397
tp632
a(I118
I444
tp633
a(I118
I454
tp634
a(I118
I464
tp635
a(I118
I474
tp636
a(I118
I484
tp637
a(I119
I153
tp638
a(I119
I208
tp639
a(I119
I249
tp640
a(I119
I318
tp641
a(I119
I376
tp642
a(I119
I440
tp643
a(I119
I450
tp644
a(I119
I460
tp645
a(I119
I470
tp646
a(I119
I480
tp647
a(I119
I490
tp648
a(I120
I205
tp649
a(I120
I305
tp650
a(I120
I319
tp651
a(I120
I417
tp652
a(I120
I446
tp653
a(I120
I456
tp654
a(I120
I466
tp655
a(I120
I476
tp656
a(I120
I486
tp657
a(I121
I156
tp658
a(I121
I207
tp659
a(I121
I307
tp660
a(I121
I320
tp661
a(I121
I417
tp662
a(I121
I445
tp663
a(I121
I455
tp664
a(I121
I465
tp665
a(I121
I475
tp666
a(I121
I485
tp667
a(I122
I173
tp668
a(I122
I207
tp669
a(I122
I308
tp670
a(I122
I318
tp671
a(I122
I398
tp672
a(I122
I445
tp673
a(I122
I455
tp674
a(I122
I465
tp675
a(I122
I475
tp676
a(I122
I485
tp677
a(I123
I157
tp678
a(I123
I203
tp679
a(I123
I251
tp680
a(I123
I314
tp681
a(I123
I378
tp682
a(I123
I443
tp683
a(I123
I453
tp684
a(I123
I463
tp685
a(I123
I473
tp686
a(I123
I483
tp687
a(I124
I156
tp688
a(I124
I201
tp689
a(I124
I252
tp690
a(I124
I316
tp691
a(I124
I397
tp692
a(I124
I442
tp693
a(I124
I452
tp694
a(I124
I462
tp695
a(I124
I472
tp696
a(I124
I482
tp697
a(I125
I156
tp698
a(I125
I200
tp699
a(I125
I252
tp700
a(I125
I315
tp701
a(I125
I349
tp702
a(I125
I395
tp703
a(I125
I440
tp704
a(I125
I450
tp705
a(I125
I460
tp706
a(I125
I470
tp707
a(I125
I480
tp708
a(I125
I490
tp709
a(I126
I177
tp710
a(I126
I205
tp711
a(I126
I309
tp712
a(I126
I337
tp713
a(I126
I347
tp714
a(I126
I393
tp715
a(I126
I434
tp716
a(I126
I444
tp717
a(I126
I454
tp718
a(I126
I464
tp719
a(I126
I474
tp720
a(I126
I484
tp721
a(I127
I159
tp722
a(I127
I201
tp723
a(I127
I255
tp724
a(I127
I315
tp725
a(I127
I342
tp726
a(I127
I380
tp727
a(I127
I399
tp728
a(I127
I439
tp729
a(I127
I449
tp730
a(I127
I459
tp731
a(I127
I469
tp732
a(I127
I479
tp733
a(I127
I489
tp734
a(I128
I178
tp735
a(I128
I205
tp736
a(I128
I309
tp737
a(I128
I338
tp738
a(I128
I360
tp739
a(I128
I399
tp740
a(I128
I420
tp741
a(I128
I443
tp742
a(I128
I453
tp743
a(I128
I463
tp744
a(I128
I473
tp745
a(I128
I483
tp746
a(I129
I160
tp747
a(I129
I199
tp748
a(I129
I255
tp749
a(I129
I312
tp750
a(I129
I338
tp751
a(I129
I361
tp752
a(I129
I400
tp753
a(I129
I410
tp754
a(I129
I436
tp755
a(I129
I446
tp756
a(I129
I456
tp757
a(I129
I466
tp758
a(I129
I476
tp759
a(I129
I486
tp760
a(I130
I176
tp761
a(I130
I201
tp762
a(I130
I304
tp763
a(I130
I318
tp764
a(I130
I361
tp765
a(I130
I401
tp766
a(I130
I411
tp767
a(I130
I421
tp768
a(I130
I447
tp769
a(I130
I457
tp770
a(I130
I467
tp771
a(I130
I477
tp772
a(I130
I487
tp773
a(I131
I163
tp774
a(I131
I200
tp775
a(I131
I257
tp776
a(I131
I312
tp777
a(I131
I351
tp778
a(I131
I398
tp779
a(I131
I408
tp780
a(I131
I418
tp781
a(I131
I443
tp782
a(I131
I453
tp783
a(I131
I463
tp784
a(I131
I473
tp785
a(I131
I483
tp786
a(I132
I129
tp787
a(I132
I179
tp788
a(I132
I204
tp789
a(I132
I305
tp790
a(I132
I331
tp791
a(I132
I395
tp792
a(I132
I413
tp793
a(I132
I438
tp794
a(I132
I448
tp795
a(I132
I458
tp796
a(I132
I468
tp797
a(I132
I478
tp798
a(I132
I488
tp799
a(I133
I134
tp800
a(I133
I179
tp801
a(I133
I203
tp802
a(I133
I301
tp803
a(I133
I311
tp804
a(I133
I355
tp805
a(I133
I398
tp806
a(I133
I421
tp807
a(I133
I446
tp808
a(I133
I456
tp809
a(I133
I466
tp810
a(I133
I476
tp811
a(I133
I486
tp812
a(I134
I133
tp813
a(I134
I178
tp814
a(I134
I202
tp815
a(I134
I259
tp816
a(I134
I310
tp817
a(I134
I355
tp818
a(I134
I396
tp819
a(I134
I421
tp820
a(I134
I445
tp821
a(I134
I455
tp822
a(I134
I465
tp823
a(I134
I475
tp824
a(I134
I485
tp825
a(I135
I134
tp826
a(I135
I163
tp827
a(I135
I197
tp828
a(I135
I255
tp829
a(I135
I304
tp830
a(I135
I324
tp831
a(I135
I361
tp832
a(I135
I399
tp833
a(I135
I439
tp834
a(I135
I449
tp835
a(I135
I459
tp836
a(I135
I469
tp837
a(I135
I479
tp838
a(I135
I489
tp839
a(I136
I140
tp840
a(I136
I165
tp841
a(I136
I198
tp842
a(I136
I256
tp843
a(I136
I304
tp844
a(I136
I325
tp845
a(I136
I365
tp846
a(I136
I419
tp847
a(I136
I443
tp848
a(I136
I453
tp849
a(I136
I463
tp850
a(I136
I473
tp851
a(I136
I483
tp852
a(I137
I136
tp853
a(I137
I146
tp854
a(I137
I178
tp855
a(I137
I202
tp856
a(I137
I298
tp857
a(I137
I308
tp858
a(I137
I361
tp859
a(I137
I398
tp860
a(I137
I440
tp861
a(I137
I450
tp862
a(I137
I460
tp863
a(I137
I470
tp864
a(I137
I480
tp865
a(I138
I134
tp866
a(I138
I144
tp867
a(I138
I154
tp868
a(I138
I178
tp869
a(I138
I202
tp870
a(I138
I260
tp871
a(I138
I307
tp872
a(I138
I359
tp873
a(I138
I386
tp874
a(I138
I421
tp875
a(I138
I445
tp876
a(I138
I455
tp877
a(I138
I465
tp878
a(I138
I475
tp879
a(I138
I485
tp880
a(I139
I144
tp881
a(I139
I154
tp882
a(I139
I164
tp883
a(I139
I201
tp884
a(I139
I259
tp885
a(I139
I305
tp886
a(I139
I359
tp887
a(I139
I387
tp888
a(I139
I421
tp889
a(I139
I446
tp890
a(I139
I456
tp891
a(I139
I466
tp892
a(I139
I476
tp893
a(I139
I486
tp894
a(I140
I149
tp895
a(I140
I159
tp896
a(I140
I180
tp897
a(I140
I205
tp898
a(I140
I300
tp899
a(I140
I354
tp900
a(I140
I370
tp901
a(I140
I421
tp902
a(I140
I446
tp903
a(I140
I456
tp904
a(I140
I466
tp905
a(I140
I476
tp906
a(I140
I486
tp907
a(I141
I150
tp908
a(I141
I160
tp909
a(I141
I180
tp910
a(I141
I203
tp911
a(I141
I296
tp912
a(I141
I306
tp913
a(I141
I365
tp914
a(I141
I396
tp915
a(I141
I441
tp916
a(I141
I451
tp917
a(I141
I461
tp918
a(I141
I471
tp919
a(I141
I481
tp920
a(I142
I125
tp921
a(I142
I157
tp922
a(I142
I167
tp923
a(I142
I188
tp924
a(I142
I198
tp925
a(I142
I208
tp926
a(I142
I299
tp927
a(I142
I336
tp928
a(I142
I370
tp929
a(I142
I420
tp930
a(I142
I445
tp931
a(I142
I455
tp932
a(I142
I465
tp933
a(I142
I475
tp934
a(I142
I485
tp935
a(I143
I129
tp936
a(I143
I161
tp937
a(I143
I182
tp938
a(I143
I192
tp939
a(I143
I202
tp940
a(I143
I259
tp941
a(I143
I302
tp942
a(I143
I363
tp943
a(I143
I394
tp944
a(I143
I436
tp945
a(I143
I446
tp946
a(I143
I456
tp947
a(I143
I466
tp948
a(I143
I476
tp949
a(I143
I486
tp950
a(I144
I130
tp951
a(I144
I161
tp952
a(I144
I183
tp953
a(I144
I193
tp954
a(I144
I203
tp955
a(I144
I259
tp956
a(I144
I303
tp957
a(I144
I364
tp958
a(I144
I394
tp959
a(I144
I432
tp960
a(I144
I442
tp961
a(I144
I452
tp962
a(I144
I462
tp963
a(I144
I472
tp964
a(I144
I482
tp965
a(I145
I127
tp966
a(I145
I158
tp967
a(I145
I168
tp968
a(I145
I190
tp969
a(I145
I200
tp970
a(I145
I210
tp971
a(I145
I299
tp972
a(I145
I312
tp973
a(I145
I368
tp974
a(I145
I418
tp975
a(I145
I428
tp976
a(I145
I438
tp977
a(I145
I448
tp978
a(I145
I458
tp979
a(I145
I468
tp980
a(I145
I478
tp981
a(I145
I488
tp982
a(I146
I134
tp983
a(I146
I166
tp984
a(I146
I191
tp985
a(I146
I201
tp986
a(I146
I258
tp987
a(I146
I268
tp988
a(I146
I278
tp989
a(I146
I305
tp990
a(I146
I330
tp991
a(I146
I372
tp992
a(I146
I419
tp993
a(I146
I429
tp994
a(I146
I439
tp995
a(I146
I449
tp996
a(I146
I459
tp997
a(I146
I469
tp998
a(I146
I479
tp999
a(I146
I489
tp1000
a(I147
I137
tp1001
a(I147
I169
tp1002
a(I147
I196
tp1003
a(I147
I206
tp1004
a(I147
I262
tp1005
a(I147
I272
tp1006
a(I147
I282
tp1007
a(I147
I304
tp1008
a(I147
I329
tp1009
a(I147
I394
tp1010
a(I147
I424
tp1011
a(I147
I434
tp1012
a(I147
I444
tp1013
a(I147
I454
tp1014
a(I147
I464
tp1015
a(I147
I474
tp1016
a(I147
I484
tp1017
a(I148
I134
tp1018
a(I148
I166
tp1019
a(I148
I195
tp1020
a(I148
I205
tp1021
a(I148
I261
tp1022
a(I148
I271
tp1023
a(I148
I281
tp1024
a(I148
I291
tp1025
a(I148
I301
tp1026
a(I148
I311
tp1027
a(I148
I366
tp1028
a(I148
I397
tp1029
a(I148
I427
tp1030
a(I148
I439
tp1031
a(I148
I449
tp1032
a(I148
I459
tp1033
a(I148
I469
tp1034
a(I148
I479
tp1035
a(I148
I489
tp1036
a(I149
I139
tp1037
a(I149
I209
tp1038
a(I149
I265
tp1039
a(I149
I275
tp1040
a(I149
I285
tp1041
a(I149
I295
tp1042
a(I149
I305
tp1043
a(I149
I327
tp1044
a(I149
I394
tp1045
a(I149
I424
tp1046
a(I149
I436
tp1047
a(I149
I446
tp1048
a(I149
I456
tp1049
a(I149
I466
tp1050
a(I149
I476
tp1051
a(I149
I490
tp1052
a(I150
I139
tp1053
a(I150
I213
tp1054
a(I150
I272
tp1055
a(I150
I282
tp1056
a(I150
I292
tp1057
a(I150
I302
tp1058
a(I150
I312
tp1059
a(I150
I363
tp1060
a(I150
I394
tp1061
a(I150
I424
tp1062
a(I150
I434
tp1063
a(I150
I444
tp1064
a(I150
I454
tp1065
a(I150
I464
tp1066
a(I150
I474
tp1067
a(I150
I490
tp1068
a(I150
I500
tp1069
a(I151
I211
tp1070
a(I151
I269
tp1071
a(I151
I279
tp1072
a(I151
I289
tp1073
a(I151
I299
tp1074
a(I151
I309
tp1075
a(I151
I325
tp1076
a(I151
I382
tp1077
a(I151
I422
tp1078
a(I151
I432
tp1079
a(I151
I442
tp1080
a(I151
I452
tp1081
a(I151
I462
tp1082
a(I151
I472
tp1083
a(I151
I489
tp1084
a(I151
I499
tp1085
a(I152
I146
tp1086
a(I152
I269
tp1087
a(I152
I279
tp1088
a(I152
I289
tp1089
a(I152
I299
tp1090
a(I152
I309
tp1091
a(I152
I322
tp1092
a(I152
I383
tp1093
a(I152
I423
tp1094
a(I152
I433
tp1095
a(I152
I443
tp1096
a(I152
I453
tp1097
a(I152
I463
tp1098
a(I152
I473
tp1099
a(I152
I492
tp1100
a(I152
I502
tp1101
a(I153
I211
tp1102
a(I153
I271
tp1103
a(I153
I281
tp1104
a(I153
I291
tp1105
a(I153
I301
tp1106
a(I153
I311
tp1107
a(I153
I321
tp1108
a(I153
I385
tp1109
a(I153
I420
tp1110
a(I153
I430
tp1111
a(I153
I440
tp1112
a(I153
I450
tp1113
a(I153
I460
tp1114
a(I153
I470
tp1115
a(I153
I504
tp1116
a(I154
I214
tp1117
a(I154
I275
tp1118
a(I154
I287
tp1119
a(I154
I299
tp1120
a(I154
I309
tp1121
a(I154
I319
tp1122
a(I154
I384
tp1123
a(I154
I418
tp1124
a(I154
I428
tp1125
a(I154
I438
tp1126
a(I154
I448
tp1127
a(I154
I458
tp1128
a(I154
I468
tp1129
a(I154
I506
tp1130
a(I155
I218
tp1131
a(I155
I317
tp1132
a(I155
I387
tp1133
a(I155
I418
tp1134
a(I155
I428
tp1135
a(I155
I438
tp1136
a(I155
I448
tp1137
a(I155
I458
tp1138
a(I155
I468
tp1139
a(I156
I146
tp1140
a(I156
I220
tp1141
a(I156
I321
tp1142
a(I156
I390
tp1143
a(I156
I420
tp1144
a(I156
I430
tp1145
a(I156
I440
tp1146
a(I156
I450
tp1147
a(I156
I460
tp1148
a(I156
I470
tp1149
a(I157
I149
tp1150
a(I157
I306
tp1151
a(I157
I385
tp1152
a(I157
I395
tp1153
a(I157
I426
tp1154
a(I157
I436
tp1155
a(I157
I450
tp1156
a(I157
I460
tp1157
a(I157
I470
tp1158
a(I158
I148
tp1159
a(I158
I300
tp1160
a(I158
I320
tp1161
a(I158
I384
tp1162
a(I158
I394
tp1163
a(I158
I423
tp1164
a(I158
I433
tp1165
a(I158
I450
tp1166
a(I158
I460
tp1167
a(I158
I470
tp1168
a(I159
I146
tp1169
a(I159
I310
tp1170
a(I159
I375
tp1171
a(I159
I393
tp1172
a(I159
I403
tp1173
a(I159
I425
tp1174
a(I159
I453
tp1175
a(I159
I463
tp1176
a(I159
I473
tp1177
a(I160
I119
tp1178
a(I160
I145
tp1179
a(I160
I321
tp1180
a(I160
I389
tp1181
a(I160
I399
tp1182
a(I160
I420
tp1183
a(I160
I430
tp1184
a(I160
I469
tp1185
a(I160
I479
tp1186
a(I161
I118
tp1187
a(I161
I128
tp1188
a(I161
I148
tp1189
a(I161
I322
tp1190
a(I161
I392
tp1191
a(I161
I402
tp1192
a(I161
I423
tp1193
a(I161
I466
tp1194
a(I161
I476
tp1195
a(I162
I122
tp1196
a(I162
I132
tp1197
a(I162
I142
tp1198
a(I162
I152
tp1199
a(I162
I340
tp1200
a(I162
I398
tp1201
a(I162
I408
tp1202
a(I162
I428
tp1203
a(I162
I474
tp1204
a(I163
I122
tp1205
a(I163
I132
tp1206
a(I163
I142
tp1207
a(I163
I152
tp1208
a(I163
I337
tp1209
a(I163
I401
tp1210
a(I163
I420
tp1211
a(I163
I430
tp1212
a(I164
I125
tp1213
a(I164
I135
tp1214
a(I164
I145
tp1215
a(I164
I323
tp1216
a(I164
I375
tp1217
a(I164
I406
tp1218
a(I164
I425
tp1219
a(I164
I480
tp1220
a(I165
I131
tp1221
a(I165
I141
tp1222
a(I165
I151
tp1223
a(I165
I332
tp1224
a(I165
I388
tp1225
a(I165
I406
tp1226
a(I165
I425
tp1227
a(I165
I480
tp1228
a(I166
I138
tp1229
a(I166
I148
tp1230
a(I166
I333
tp1231
a(I166
I400
tp1232
a(I166
I421
tp1233
a(I166
I474
tp1234
a(I167
I281
tp1235
a(I167
I334
tp1236
a(I167
I399
tp1237
a(I167
I421
tp1238
a(I167
I474
tp1239
a(I168
I281
tp1240
a(I168
I331
tp1241
a(I168
I370
tp1242
a(I168
I403
tp1243
a(I168
I426
tp1244
a(I168
I488
tp1245
a(I169
I278
tp1246
a(I169
I310
tp1247
a(I169
I329
tp1248
a(I169
I387
tp1249
a(I169
I420
tp1250
a(I169
I430
tp1251
a(I170
I108
tp1252
a(I170
I277
tp1253
a(I170
I308
tp1254
a(I170
I325
tp1255
a(I170
I369
tp1256
a(I170
I400
tp1257
a(I170
I425
tp1258
a(I170
I482
tp1259
a(I171
I113
tp1260
a(I171
I303
tp1261
a(I171
I313
tp1262
a(I171
I351
tp1263
a(I171
I397
tp1264
a(I171
I422
tp1265
a(I171
I478
tp1266
a(I172
I115
tp1267
a(I172
I298
tp1268
a(I172
I308
tp1269
a(I172
I318
tp1270
a(I172
I380
tp1271
a(I172
I400
tp1272
a(I172
I425
tp1273
a(I172
I481
tp1274
a(I173
I123
tp1275
a(I173
I298
tp1276
a(I173
I308
tp1277
a(I173
I318
tp1278
a(I173
I347
tp1279
a(I173
I396
tp1280
a(I173
I421
tp1281
a(I173
I431
tp1282
a(I174
I122
tp1283
a(I174
I298
tp1284
a(I174
I308
tp1285
a(I174
I318
tp1286
a(I174
I342
tp1287
a(I174
I383
tp1288
a(I174
I403
tp1289
a(I174
I428
tp1290
a(I174
I489
tp1291
a(I175
I274
tp1292
a(I175
I301
tp1293
a(I175
I311
tp1294
a(I175
I321
tp1295
a(I175
I343
tp1296
a(I175
I393
tp1297
a(I175
I403
tp1298
a(I175
I428
tp1299
a(I175
I489
tp1300
a(I176
I294
tp1301
a(I176
I304
tp1302
a(I176
I314
tp1303
a(I176
I324
tp1304
a(I176
I346
tp1305
a(I176
I397
tp1306
a(I176
I425
tp1307
a(I176
I481
tp1308
a(I177
I291
tp1309
a(I177
I301
tp1310
a(I177
I311
tp1311
a(I177
I321
tp1312
a(I177
I342
tp1313
a(I177
I391
tp1314
a(I177
I420
tp1315
a(I177
I430
tp1316
a(I178
I130
tp1317
a(I178
I294
tp1318
a(I178
I309
tp1319
a(I178
I319
tp1320
a(I178
I329
tp1321
a(I178
I381
tp1322
a(I178
I419
tp1323
a(I178
I429
tp1324
a(I179
I132
tp1325
a(I179
I292
tp1326
a(I179
I313
tp1327
a(I179
I323
tp1328
a(I179
I347
tp1329
a(I179
I393
tp1330
a(I179
I424
tp1331
a(I179
I481
tp1332
a(I180
I288
tp1333
a(I180
I312
tp1334
a(I180
I322
tp1335
a(I180
I339
tp1336
a(I180
I391
tp1337
a(I180
I423
tp1338
a(I180
I481
tp1339
a(I181
I289
tp1340
a(I181
I314
tp1341
a(I181
I324
tp1342
a(I181
I350
tp1343
a(I181
I393
tp1344
a(I181
I426
tp1345
a(I181
I488
tp1346
a(I182
I286
tp1347
a(I182
I314
tp1348
a(I182
I329
tp1349
a(I182
I386
tp1350
a(I182
I419
tp1351
a(I182
I429
tp1352
a(I183
I138
tp1353
a(I183
I287
tp1354
a(I183
I315
tp1355
a(I183
I331
tp1356
a(I183
I355
tp1357
a(I183
I393
tp1358
a(I183
I426
tp1359
a(I183
I488
tp1360
a(I184
I271
tp1361
a(I184
I312
tp1362
a(I184
I331
tp1363
a(I184
I386
tp1364
a(I184
I420
tp1365
a(I184
I430
tp1366
a(I185
I138
tp1367
a(I185
I286
tp1368
a(I185
I326
tp1369
a(I185
I354
tp1370
a(I185
I391
tp1371
a(I185
I425
tp1372
a(I185
I482
tp1373
a(I186
I139
tp1374
a(I186
I287
tp1375
a(I186
I328
tp1376
a(I186
I357
tp1377
a(I186
I391
tp1378
a(I186
I426
tp1379
a(I186
I483
tp1380
a(I186
I493
tp1381
a(I187
I131
tp1382
a(I187
I141
tp1383
a(I187
I288
tp1384
a(I187
I330
tp1385
a(I187
I359
tp1386
a(I187
I392
tp1387
a(I187
I427
tp1388
a(I187
I482
tp1389
a(I187
I492
tp1390
a(I187
I502
tp1391
a(I188
I138
tp1392
a(I188
I285
tp1393
a(I188
I326
tp1394
a(I188
I354
tp1395
a(I188
I387
tp1396
a(I188
I420
tp1397
a(I188
I430
tp1398
a(I188
I485
tp1399
a(I188
I495
tp1400
a(I189
I128
tp1401
a(I189
I138
tp1402
a(I189
I285
tp1403
a(I189
I323
tp1404
a(I189
I333
tp1405
a(I189
I386
tp1406
a(I189
I396
tp1407
a(I189
I427
tp1408
a(I189
I482
tp1409
a(I189
I492
tp1410
a(I189
I502
tp1411
a(I190
I132
tp1412
a(I190
I142
tp1413
a(I190
I288
tp1414
a(I190
I323
tp1415
a(I190
I336
tp1416
a(I190
I385
tp1417
a(I190
I395
tp1418
a(I190
I421
tp1419
a(I190
I477
tp1420
a(I190
I487
tp1421
a(I190
I497
tp1422
a(I191
I128
tp1423
a(I191
I138
tp1424
a(I191
I284
tp1425
a(I191
I319
tp1426
a(I191
I333
tp1427
a(I191
I363
tp1428
a(I191
I391
tp1429
a(I191
I401
tp1430
a(I191
I426
tp1431
a(I191
I483
tp1432
a(I191
I493
tp1433
a(I192
I116
tp1434
a(I192
I128
tp1435
a(I192
I138
tp1436
a(I192
I284
tp1437
a(I192
I315
tp1438
a(I192
I325
tp1439
a(I192
I350
tp1440
a(I192
I383
tp1441
a(I192
I393
tp1442
a(I192
I403
tp1443
a(I192
I428
tp1444
a(I192
I485
tp1445
a(I192
I495
tp1446
a(I193
I119
tp1447
a(I193
I129
tp1448
a(I193
I139
tp1449
a(I193
I287
tp1450
a(I193
I320
tp1451
a(I193
I336
tp1452
a(I193
I381
tp1453
a(I193
I392
tp1454
a(I193
I402
tp1455
a(I193
I427
tp1456
a(I193
I484
tp1457
a(I194
I108
tp1458
a(I194
I118
tp1459
a(I194
I128
tp1460
a(I194
I138
tp1461
a(I194
I289
tp1462
a(I194
I324
tp1463
a(I194
I334
tp1464
a(I194
I366
tp1465
a(I194
I391
tp1466
a(I194
I420
tp1467
a(I194
I430
tp1468
a(I194
I490
tp1469
a(I195
I111
tp1470
a(I195
I121
tp1471
a(I195
I131
tp1472
a(I195
I288
tp1473
a(I195
I322
tp1474
a(I195
I332
tp1475
a(I195
I364
tp1476
a(I195
I383
tp1477
a(I195
I402
tp1478
a(I195
I426
tp1479
a(I195
I483
tp1480
a(I196
I270
tp1481
a(I196
I291
tp1482
a(I196
I330
tp1483
a(I196
I344
tp1484
a(I196
I379
tp1485
a(I196
I402
tp1486
a(I196
I424
tp1487
a(I196
I481
tp1488
a(I197
I285
tp1489
a(I197
I313
tp1490
a(I197
I336
tp1491
a(I197
I368
tp1492
a(I197
I381
tp1493
a(I197
I404
tp1494
a(I197
I425
tp1495
a(I197
I482
tp1496
a(I198
I285
tp1497
a(I198
I313
tp1498
a(I198
I338
tp1499
a(I198
I371
tp1500
a(I198
I381
tp1501
a(I198
I404
tp1502
a(I198
I424
tp1503
a(I198
I481
tp1504
a(I199
I284
tp1505
a(I199
I294
tp1506
a(I199
I334
tp1507
a(I199
I370
tp1508
a(I199
I380
tp1509
a(I199
I407
tp1510
a(I199
I425
tp1511
a(I199
I482
tp1512
a(I200
I285
tp1513
a(I200
I295
tp1514
a(I200
I334
tp1515
a(I200
I370
tp1516
a(I200
I380
tp1517
a(I200
I419
tp1518
a(I200
I429
tp1519
a(I200
I492
tp1520
a(I201
I289
tp1521
a(I201
I311
tp1522
a(I201
I338
tp1523
a(I201
I373
tp1524
a(I201
I383
tp1525
a(I201
I423
tp1526
a(I201
I480
tp1527
a(I202
I284
tp1528
a(I202
I294
tp1529
a(I202
I310
tp1530
a(I202
I337
tp1531
a(I202
I372
tp1532
a(I202
I382
tp1533
a(I202
I423
tp1534
a(I202
I480
tp1535
a(I203
I284
tp1536
a(I203
I294
tp1537
a(I203
I309
tp1538
a(I203
I339
tp1539
a(I203
I378
tp1540
a(I203
I420
tp1541
a(I203
I430
tp1542
a(I204
I283
tp1543
a(I204
I293
tp1544
a(I204
I307
tp1545
a(I204
I339
tp1546
a(I204
I377
tp1547
a(I204
I415
tp1548
a(I204
I427
tp1549
a(I204
I491
tp1550
a(I205
I290
tp1551
a(I205
I306
tp1552
a(I205
I337
tp1553
a(I205
I375
tp1554
a(I205
I413
tp1555
a(I205
I424
tp1556
a(I205
I481
tp1557
a(I206
I287
tp1558
a(I206
I304
tp1559
a(I206
I340
tp1560
a(I206
I377
tp1561
a(I206
I414
tp1562
a(I206
I424
tp1563
a(I206
I481
tp1564
a(I207
I284
tp1565
a(I207
I301
tp1566
a(I207
I361
tp1567
a(I207
I383
tp1568
a(I207
I418
tp1569
a(I207
I428
tp1570
a(I207
I491
tp1571
a(I208
I287
tp1572
a(I208
I339
tp1573
a(I208
I375
tp1574
a(I208
I414
tp1575
a(I208
I424
tp1576
a(I208
I481
tp1577
a(I209
I134
tp1578
a(I209
I299
tp1579
a(I209
I359
tp1580
a(I209
I386
tp1581
a(I209
I421
tp1582
a(I209
I479
tp1583
a(I209
I489
tp1584
a(I210
I136
tp1585
a(I210
I299
tp1586
a(I210
I358
tp1587
a(I210
I385
tp1588
a(I210
I420
tp1589
a(I210
I478
tp1590
a(I210
I488
tp1591
a(I211
I132
tp1592
a(I211
I289
tp1593
a(I211
I342
tp1594
a(I211
I373
tp1595
a(I211
I420
tp1596
a(I211
I478
tp1597
a(I211
I488
tp1598
a(I212
I136
tp1599
a(I212
I334
tp1600
a(I212
I358
tp1601
a(I212
I385
tp1602
a(I212
I419
tp1603
a(I212
I429
tp1604
a(I212
I486
tp1605
a(I213
I133
tp1606
a(I213
I289
tp1607
a(I213
I344
tp1608
a(I213
I384
tp1609
a(I213
I419
tp1610
a(I213
I429
tp1611
a(I213
I486
tp1612
a(I214
I130
tp1613
a(I214
I286
tp1614
a(I214
I340
tp1615
a(I214
I367
tp1616
a(I214
I389
tp1617
a(I214
I425
tp1618
a(I214
I482
tp1619
a(I215
I125
tp1620
a(I215
I135
tp1621
a(I215
I336
tp1622
a(I215
I357
tp1623
a(I215
I388
tp1624
a(I215
I425
tp1625
a(I215
I482
tp1626
a(I216
I126
tp1627
a(I216
I292
tp1628
a(I216
I343
tp1629
a(I216
I365
tp1630
a(I216
I389
tp1631
a(I216
I425
tp1632
a(I216
I490
tp1633
a(I217
I129
tp1634
a(I217
I334
tp1635
a(I217
I347
tp1636
a(I217
I366
tp1637
a(I217
I406
tp1638
a(I217
I427
tp1639
a(I218
I121
tp1640
a(I218
I289
tp1641
a(I218
I343
tp1642
a(I218
I363
tp1643
a(I218
I387
tp1644
a(I218
I423
tp1645
a(I218
I479
tp1646
a(I219
I124
tp1647
a(I219
I293
tp1648
a(I219
I347
tp1649
a(I219
I363
tp1650
a(I219
I387
tp1651
a(I219
I423
tp1652
a(I219
I479
tp1653
a(I220
I123
tp1654
a(I220
I337
tp1655
a(I220
I350
tp1656
a(I220
I367
tp1657
a(I220
I405
tp1658
a(I220
I427
tp1659
a(I221
I116
tp1660
a(I221
I293
tp1661
a(I221
I347
tp1662
a(I221
I363
tp1663
a(I221
I386
tp1664
a(I221
I422
tp1665
a(I221
I478
tp1666
a(I222
I120
tp1667
a(I222
I339
tp1668
a(I222
I358
tp1669
a(I222
I368
tp1670
a(I222
I404
tp1671
a(I222
I427
tp1672
a(I223
I113
tp1673
a(I223
I336
tp1674
a(I223
I349
tp1675
a(I223
I363
tp1676
a(I223
I385
tp1677
a(I223
I421
tp1678
a(I223
I477
tp1679
a(I224
I116
tp1680
a(I224
I346
tp1681
a(I224
I363
tp1682
a(I224
I384
tp1683
a(I224
I421
tp1684
a(I224
I477
tp1685
a(I225
I115
tp1686
a(I225
I347
tp1687
a(I225
I357
tp1688
a(I225
I382
tp1689
a(I225
I419
tp1690
a(I225
I429
tp1691
a(I226
I338
tp1692
a(I226
I353
tp1693
a(I226
I369
tp1694
a(I226
I401
tp1695
a(I226
I427
tp1696
a(I227
I296
tp1697
a(I227
I350
tp1698
a(I227
I366
tp1699
a(I227
I385
tp1700
a(I227
I422
tp1701
a(I227
I479
tp1702
a(I228
I345
tp1703
a(I228
I355
tp1704
a(I228
I381
tp1705
a(I228
I420
tp1706
a(I228
I430
tp1707
a(I229
I262
tp1708
a(I229
I273
tp1709
a(I229
I325
tp1710
a(I229
I350
tp1711
a(I229
I365
tp1712
a(I229
I396
tp1713
a(I229
I422
tp1714
a(I229
I478
tp1715
a(I230
I265
tp1716
a(I230
I275
tp1717
a(I230
I326
tp1718
a(I230
I351
tp1719
a(I230
I365
tp1720
a(I230
I397
tp1721
a(I230
I424
tp1722
a(I230
I480
tp1723
a(I231
I282
tp1724
a(I231
I329
tp1725
a(I231
I350
tp1726
a(I231
I360
tp1727
a(I231
I382
tp1728
a(I231
I422
tp1729
a(I231
I478
tp1730
a(I232
I275
tp1731
a(I232
I323
tp1732
a(I232
I339
tp1733
a(I232
I354
tp1734
a(I232
I368
tp1735
a(I232
I398
tp1736
a(I232
I426
tp1737
a(I233
I97
tp1738
a(I233
I326
tp1739
a(I233
I338
tp1740
a(I233
I354
tp1741
a(I233
I381
tp1742
a(I233
I422
tp1743
a(I233
I479
tp1744
a(I234
I320
tp1745
a(I234
I330
tp1746
a(I234
I340
tp1747
a(I234
I354
tp1748
a(I234
I392
tp1749
a(I234
I422
tp1750
a(I234
I479
tp1751
a(I235
I320
tp1752
a(I235
I330
tp1753
a(I235
I340
tp1754
a(I235
I354
tp1755
a(I235
I391
tp1756
a(I235
I421
tp1757
a(I235
I478
tp1758
a(I236
I238
tp1759
a(I236
I273
tp1760
a(I236
I327
tp1761
a(I236
I342
tp1762
a(I236
I368
tp1763
a(I236
I394
tp1764
a(I236
I426
tp1765
a(I237
I89
tp1766
a(I237
I238
tp1767
a(I237
I270
tp1768
a(I237
I280
tp1769
a(I237
I324
tp1770
a(I237
I340
tp1771
a(I237
I350
tp1772
a(I237
I378
tp1773
a(I237
I417
tp1774
a(I237
I427
tp1775
a(I238
I89
tp1776
a(I238
I262
tp1777
a(I238
I281
tp1778
a(I238
I326
tp1779
a(I238
I346
tp1780
a(I238
I369
tp1781
a(I238
I395
tp1782
a(I238
I424
tp1783
a(I238
I481
tp1784
a(I239
I182
tp1785
a(I239
I264
tp1786
a(I239
I285
tp1787
a(I239
I335
tp1788
a(I239
I348
tp1789
a(I239
I375
tp1790
a(I239
I394
tp1791
a(I239
I421
tp1792
a(I239
I478
tp1793
a(I240
I91
tp1794
a(I240
I282
tp1795
a(I240
I326
tp1796
a(I240
I349
tp1797
a(I240
I375
tp1798
a(I240
I400
tp1799
a(I240
I418
tp1800
a(I240
I428
tp1801
a(I241
I86
tp1802
a(I241
I255
tp1803
a(I241
I309
tp1804
a(I241
I331
tp1805
a(I241
I351
tp1806
a(I241
I374
tp1807
a(I241
I393
tp1808
a(I241
I407
tp1809
a(I241
I423
tp1810
a(I241
I480
tp1811
a(I242
I181
tp1812
a(I242
I287
tp1813
a(I242
I327
tp1814
a(I242
I337
tp1815
a(I242
I355
tp1816
a(I242
I378
tp1817
a(I242
I398
tp1818
a(I242
I418
tp1819
a(I242
I428
tp1820
a(I243
I82
tp1821
a(I243
I252
tp1822
a(I243
I331
tp1823
a(I243
I341
tp1824
a(I243
I374
tp1825
a(I243
I395
tp1826
a(I243
I421
tp1827
a(I243
I478
tp1828
a(I244
I83
tp1829
a(I244
I292
tp1830
a(I244
I336
tp1831
a(I244
I372
tp1832
a(I244
I396
tp1833
a(I244
I421
tp1834
a(I244
I478
tp1835
a(I245
I82
tp1836
a(I245
I314
tp1837
a(I245
I341
tp1838
a(I245
I375
tp1839
a(I245
I411
tp1840
a(I245
I422
tp1841
a(I245
I479
tp1842
a(I246
I81
tp1843
a(I246
I293
tp1844
a(I246
I335
tp1845
a(I246
I345
tp1846
a(I246
I374
tp1847
a(I246
I411
tp1848
a(I246
I421
tp1849
a(I246
I478
tp1850
a(I247
I179
tp1851
a(I247
I314
tp1852
a(I247
I337
tp1853
a(I247
I359
tp1854
a(I247
I376
tp1855
a(I247
I415
tp1856
a(I247
I425
tp1857
a(I248
I142
tp1858
a(I248
I317
tp1859
a(I248
I341
tp1860
a(I248
I365
tp1861
a(I248
I375
tp1862
a(I248
I415
tp1863
a(I248
I425
tp1864
a(I248
I481
tp1865
a(I249
I242
tp1866
a(I249
I337
tp1867
a(I249
I363
tp1868
a(I249
I373
tp1869
a(I249
I413
tp1870
a(I249
I423
tp1871
a(I249
I479
tp1872
a(I250
I112
tp1873
a(I250
I122
tp1874
a(I250
I132
tp1875
a(I250
I142
tp1876
a(I250
I318
tp1877
a(I250
I346
tp1878
a(I250
I372
tp1879
a(I250
I415
tp1880
a(I250
I425
tp1881
a(I251
I100
tp1882
a(I251
I110
tp1883
a(I251
I143
tp1884
a(I251
I330
tp1885
a(I251
I366
tp1886
a(I251
I394
tp1887
a(I251
I422
tp1888
a(I251
I479
tp1889
a(I252
I106
tp1890
a(I252
I142
tp1891
a(I252
I329
tp1892
a(I252
I354
tp1893
a(I252
I374
tp1894
a(I252
I423
tp1895
a(I252
I480
tp1896
a(I253
I97
tp1897
a(I253
I145
tp1898
a(I253
I342
tp1899
a(I253
I359
tp1900
a(I253
I418
tp1901
a(I253
I428
tp1902
a(I254
I88
tp1903
a(I254
I143
tp1904
a(I254
I323
tp1905
a(I254
I357
tp1906
a(I254
I367
tp1907
a(I254
I421
tp1908
a(I254
I478
tp1909
a(I255
I92
tp1910
a(I255
I237
tp1911
a(I255
I355
tp1912
a(I255
I365
tp1913
a(I255
I418
tp1914
a(I255
I428
tp1915
a(I256
I89
tp1916
a(I256
I179
tp1917
a(I256
I345
tp1918
a(I256
I359
tp1919
a(I256
I375
tp1920
a(I256
I423
tp1921
a(I256
I480
tp1922
a(I257
I178
tp1923
a(I257
I348
tp1924
a(I257
I362
tp1925
a(I257
I420
tp1926
a(I257
I430
tp1927
a(I258
I143
tp1928
a(I258
I334
tp1929
a(I258
I355
tp1930
a(I258
I417
tp1931
a(I258
I427
tp1932
a(I259
I139
tp1933
a(I259
I326
tp1934
a(I259
I351
tp1935
a(I259
I376
tp1936
a(I259
I422
tp1937
a(I259
I479
tp1938
a(I260
I178
tp1939
a(I260
I350
tp1940
a(I260
I376
tp1941
a(I260
I422
tp1942
a(I260
I479
tp1943
a(I260
I489
tp1944
a(I260
I499
tp1945
a(I261
I142
tp1946
a(I261
I350
tp1947
a(I261
I375
tp1948
a(I261
I420
tp1949
a(I261
I430
tp1950
a(I261
I487
tp1951
a(I261
I497
tp1952
a(I262
I137
tp1953
a(I262
I330
tp1954
a(I262
I357
tp1955
a(I262
I417
tp1956
a(I262
I427
tp1957
a(I262
I484
tp1958
a(I262
I494
tp1959
a(I262
I504
tp1960
a(I263
I330
tp1961
a(I263
I357
tp1962
a(I263
I417
tp1963
a(I263
I427
tp1964
a(I263
I484
tp1965
a(I263
I494
tp1966
a(I263
I504
tp1967
a(I264
I189
tp1968
a(I264
I354
tp1969
a(I264
I411
tp1970
a(I264
I421
tp1971
a(I264
I478
tp1972
a(I264
I488
tp1973
a(I264
I498
tp1974
a(I265
I134
tp1975
a(I265
I331
tp1976
a(I265
I360
tp1977
a(I265
I418
tp1978
a(I265
I428
tp1979
a(I265
I485
tp1980
a(I266
I137
tp1981
a(I266
I331
tp1982
a(I266
I359
tp1983
a(I266
I415
tp1984
a(I266
I425
tp1985
a(I266
I482
tp1986
a(I267
I137
tp1987
a(I267
I356
tp1988
a(I267
I408
tp1989
a(I267
I422
tp1990
a(I267
I479
tp1991
a(I268
I189
tp1992
a(I268
I318
tp1993
a(I268
I358
tp1994
a(I268
I406
tp1995
a(I268
I422
tp1996
a(I268
I479
tp1997
a(I269
I189
tp1998
a(I269
I317
tp1999
a(I269
I344
tp2000
a(I269
I380
tp2001
a(I269
I416
tp2002
a(I269
I426
tp2003
a(I270
I130
tp2004
a(I270
I288
tp2005
a(I270
I319
tp2006
a(I270
I346
tp2007
a(I270
I384
tp2008
a(I270
I406
tp2009
a(I270
I423
tp2010
a(I270
I479
tp2011
a(I271
I190
tp2012
a(I271
I292
tp2013
a(I271
I344
tp2014
a(I271
I380
tp2015
a(I271
I393
tp2016
a(I271
I403
tp2017
a(I271
I422
tp2018
a(I271
I478
tp2019
a(I272
I189
tp2020
a(I272
I290
tp2021
a(I272
I331
tp2022
a(I272
I364
tp2023
a(I272
I392
tp2024
a(I272
I402
tp2025
a(I272
I421
tp2026
a(I272
I477
tp2027
a(I273
I132
tp2028
a(I273
I286
tp2029
a(I273
I322
tp2030
a(I273
I351
tp2031
a(I273
I388
tp2032
a(I273
I398
tp2033
a(I273
I418
tp2034
a(I273
I428
tp2035
a(I274
I129
tp2036
a(I274
I287
tp2037
a(I274
I326
tp2038
a(I274
I363
tp2039
a(I274
I395
tp2040
a(I274
I422
tp2041
a(I274
I478
tp2042
a(I275
I190
tp2043
a(I275
I290
tp2044
a(I275
I333
tp2045
a(I275
I366
tp2046
a(I275
I395
tp2047
a(I275
I424
tp2048
a(I275
I481
tp2049
a(I276
I275
tp2050
a(I276
I290
tp2051
a(I276
I330
tp2052
a(I276
I354
tp2053
a(I276
I381
tp2054
a(I276
I418
tp2055
a(I276
I428
tp2056
a(I277
I128
tp2057
a(I277
I288
tp2058
a(I277
I329
tp2059
a(I277
I368
tp2060
a(I277
I391
tp2061
a(I277
I420
tp2062
a(I277
I430
tp2063
a(I278
I127
tp2064
a(I278
I286
tp2065
a(I278
I329
tp2066
a(I278
I380
tp2067
a(I278
I390
tp2068
a(I278
I419
tp2069
a(I278
I429
tp2070
a(I279
I127
tp2071
a(I279
I285
tp2072
a(I279
I328
tp2073
a(I279
I371
tp2074
a(I279
I388
tp2075
a(I279
I417
tp2076
a(I279
I427
tp2077
a(I280
I46
tp2078
a(I280
I223
tp2079
a(I280
I298
tp2080
a(I280
I330
tp2081
a(I280
I380
tp2082
a(I280
I390
tp2083
a(I280
I417
tp2084
a(I280
I427
tp2085
a(I281
I32
tp2086
a(I281
I42
tp2087
a(I281
I126
tp2088
a(I281
I278
tp2089
a(I281
I325
tp2090
a(I281
I353
tp2091
a(I281
I385
tp2092
a(I281
I397
tp2093
a(I281
I422
tp2094
a(I281
I479
tp2095
a(I282
I34
tp2096
a(I282
I44
tp2097
a(I282
I272
tp2098
a(I282
I297
tp2099
a(I282
I346
tp2100
a(I282
I379
tp2101
a(I282
I389
tp2102
a(I282
I418
tp2103
a(I282
I428
tp2104
a(I283
I22
tp2105
a(I283
I32
tp2106
a(I283
I42
tp2107
a(I283
I272
tp2108
a(I283
I298
tp2109
a(I283
I350
tp2110
a(I283
I375
tp2111
a(I283
I385
tp2112
a(I283
I400
tp2113
a(I283
I423
tp2114
a(I283
I479
tp2115
a(I284
I23
tp2116
a(I284
I124
tp2117
a(I284
I297
tp2118
a(I284
I347
tp2119
a(I284
I377
tp2120
a(I284
I387
tp2121
a(I284
I420
tp2122
a(I284
I430
tp2123
a(I285
I120
tp2124
a(I285
I298
tp2125
a(I285
I348
tp2126
a(I285
I361
tp2127
a(I285
I384
tp2128
a(I285
I415
tp2129
a(I285
I425
tp2130
a(I285
I481
tp2131
a(I286
I273
tp2132
a(I286
I328
tp2133
a(I286
I358
tp2134
a(I286
I381
tp2135
a(I286
I402
tp2136
a(I286
I421
tp2137
a(I286
I477
tp2138
a(I287
I122
tp2139
a(I287
I329
tp2140
a(I287
I360
tp2141
a(I287
I389
tp2142
a(I287
I422
tp2143
a(I287
I478
tp2144
a(I288
I293
tp2145
a(I288
I326
tp2146
a(I288
I357
tp2147
a(I288
I390
tp2148
a(I288
I422
tp2149
a(I288
I478
tp2150
a(I289
I293
tp2151
a(I289
I325
tp2152
a(I289
I356
tp2153
a(I289
I390
tp2154
a(I289
I421
tp2155
a(I289
I477
tp2156
a(I290
I290
tp2157
a(I290
I300
tp2158
a(I290
I352
tp2159
a(I290
I381
tp2160
a(I290
I418
tp2161
a(I290
I428
tp2162
a(I291
I116
tp2163
a(I291
I298
tp2164
a(I291
I349
tp2165
a(I291
I371
tp2166
a(I291
I416
tp2167
a(I291
I426
tp2168
a(I291
I481
tp2169
a(I292
I296
tp2170
a(I292
I325
tp2171
a(I292
I356
tp2172
a(I292
I418
tp2173
a(I292
I428
tp2174
a(I293
I115
tp2175
a(I293
I222
tp2176
a(I293
I299
tp2177
a(I293
I325
tp2178
a(I293
I355
tp2179
a(I293
I407
tp2180
a(I293
I423
tp2181
a(I293
I478
tp2182
a(I294
I156
tp2183
a(I294
I288
tp2184
a(I294
I323
tp2185
a(I294
I352
tp2186
a(I294
I381
tp2187
a(I294
I422
tp2188
a(I294
I477
tp2189
a(I295
I149
tp2190
a(I295
I159
tp2191
a(I295
I294
tp2192
a(I295
I319
tp2193
a(I295
I356
tp2194
a(I295
I416
tp2195
a(I295
I426
tp2196
a(I296
I112
tp2197
a(I296
I152
tp2198
a(I296
I162
tp2199
a(I296
I291
tp2200
a(I296
I314
tp2201
a(I296
I347
tp2202
a(I296
I377
tp2203
a(I296
I419
tp2204
a(I296
I429
tp2205
a(I297
I145
tp2206
a(I297
I155
tp2207
a(I297
I165
tp2208
a(I297
I292
tp2209
a(I297
I309
tp2210
a(I297
I343
tp2211
a(I297
I374
tp2212
a(I297
I418
tp2213
a(I297
I428
tp2214
a(I298
I111
tp2215
a(I298
I147
tp2216
a(I298
I162
tp2217
a(I298
I283
tp2218
a(I298
I303
tp2219
a(I298
I313
tp2220
a(I298
I363
tp2221
a(I298
I377
tp2222
a(I298
I422
tp2223
a(I298
I477
tp2224
a(I299
I141
tp2225
a(I299
I151
tp2226
a(I299
I279
tp2227
a(I299
I289
tp2228
a(I299
I309
tp2229
a(I299
I360
tp2230
a(I299
I370
tp2231
a(I299
I415
tp2232
a(I299
I425
tp2233
a(I299
I480
tp2234
a(I300
I143
tp2235
a(I300
I160
tp2236
a(I300
I280
tp2237
a(I300
I290
tp2238
a(I300
I309
tp2239
a(I300
I362
tp2240
a(I300
I372
tp2241
a(I300
I417
tp2242
a(I300
I427
tp2243
a(I301
I109
tp2244
a(I301
I142
tp2245
a(I301
I163
tp2246
a(I301
I287
tp2247
a(I301
I365
tp2248
a(I301
I405
tp2249
a(I301
I422
tp2250
a(I301
I477
tp2251
a(I302
I136
tp2252
a(I302
I159
tp2253
a(I302
I282
tp2254
a(I302
I341
tp2255
a(I302
I417
tp2256
a(I302
I427
tp2257
a(I303
I108
tp2258
a(I303
I138
tp2259
a(I303
I162
tp2260
a(I303
I296
tp2261
a(I303
I342
tp2262
a(I303
I420
tp2263
a(I303
I430
tp2264
a(I304
I131
tp2265
a(I304
I141
tp2266
a(I304
I293
tp2267
a(I304
I403
tp2268
a(I304
I420
tp2269
a(I304
I430
tp2270
a(I305
I109
tp2271
a(I305
I137
tp2272
a(I305
I290
tp2273
a(I305
I342
tp2274
a(I305
I419
tp2275
a(I305
I429
tp2276
a(I306
I107
tp2277
a(I306
I135
tp2278
a(I306
I206
tp2279
a(I306
I300
tp2280
a(I306
I405
tp2281
a(I306
I423
tp2282
a(I306
I476
tp2283
a(I307
I128
tp2284
a(I307
I161
tp2285
a(I307
I299
tp2286
a(I307
I417
tp2287
a(I307
I427
tp2288
a(I308
I103
tp2289
a(I308
I127
tp2290
a(I308
I162
tp2291
a(I308
I298
tp2292
a(I308
I417
tp2293
a(I308
I427
tp2294
a(I309
I103
tp2295
a(I309
I128
tp2296
a(I309
I207
tp2297
a(I309
I399
tp2298
a(I309
I422
tp2299
a(I309
I476
tp2300
a(I310
I120
tp2301
a(I310
I130
tp2302
a(I310
I284
tp2303
a(I310
I377
tp2304
a(I310
I419
tp2305
a(I310
I429
tp2306
a(I311
I105
tp2307
a(I311
I127
tp2308
a(I311
I284
tp2309
a(I311
I400
tp2310
a(I311
I424
tp2311
a(I311
I479
tp2312
a(I312
I121
tp2313
a(I312
I161
tp2314
a(I312
I294
tp2315
a(I312
I416
tp2316
a(I312
I426
tp2317
a(I313
I102
tp2318
a(I313
I119
tp2319
a(I313
I160
tp2320
a(I313
I282
tp2321
a(I313
I384
tp2322
a(I313
I417
tp2323
a(I313
I427
tp2324
a(I314
I103
tp2325
a(I314
I121
tp2326
a(I314
I277
tp2327
a(I314
I386
tp2328
a(I314
I398
tp2329
a(I314
I424
tp2330
a(I314
I479
tp2331
a(I315
I114
tp2332
a(I315
I160
tp2333
a(I315
I345
tp2334
a(I315
I390
tp2335
a(I315
I418
tp2336
a(I315
I428
tp2337
a(I316
I102
tp2338
a(I316
I117
tp2339
a(I316
I272
tp2340
a(I316
I345
tp2341
a(I316
I388
tp2342
a(I316
I417
tp2343
a(I316
I427
tp2344
a(I317
I100
tp2345
a(I317
I110
tp2346
a(I317
I159
tp2347
a(I317
I343
tp2348
a(I317
I391
tp2349
a(I317
I422
tp2350
a(I317
I477
tp2351
a(I318
I104
tp2352
a(I318
I114
tp2353
a(I318
I185
tp2354
a(I318
I284
tp2355
a(I318
I347
tp2356
a(I318
I416
tp2357
a(I318
I426
tp2358
a(I319
I97
tp2359
a(I319
I107
tp2360
a(I319
I159
tp2361
a(I319
I265
tp2362
a(I319
I343
tp2363
a(I319
I391
tp2364
a(I319
I422
tp2365
a(I319
I478
tp2366
a(I320
I103
tp2367
a(I320
I113
tp2368
a(I320
I187
tp2369
a(I320
I265
tp2370
a(I320
I344
tp2371
a(I320
I372
tp2372
a(I320
I419
tp2373
a(I320
I475
tp2374
a(I321
I100
tp2375
a(I321
I110
tp2376
a(I321
I185
tp2377
a(I321
I264
tp2378
a(I321
I371
tp2379
a(I321
I418
tp2380
a(I321
I428
tp2381
a(I322
I99
tp2382
a(I322
I109
tp2383
a(I322
I192
tp2384
a(I322
I343
tp2385
a(I322
I389
tp2386
a(I322
I419
tp2387
a(I322
I475
tp2388
a(I323
I100
tp2389
a(I323
I156
tp2390
a(I323
I193
tp2391
a(I323
I262
tp2392
a(I323
I374
tp2393
a(I323
I386
tp2394
a(I323
I416
tp2395
a(I323
I426
tp2396
a(I324
I97
tp2397
a(I324
I107
tp2398
a(I324
I207
tp2399
a(I324
I341
tp2400
a(I324
I379
tp2401
a(I324
I389
tp2402
a(I324
I420
tp2403
a(I324
I476
tp2404
a(I325
I102
tp2405
a(I325
I180
tp2406
a(I325
I250
tp2407
a(I325
I343
tp2408
a(I325
I382
tp2409
a(I325
I392
tp2410
a(I325
I420
tp2411
a(I325
I476
tp2412
a(I326
I101
tp2413
a(I326
I181
tp2414
a(I326
I248
tp2415
a(I326
I340
tp2416
a(I326
I382
tp2417
a(I326
I392
tp2418
a(I326
I420
tp2419
a(I326
I476
tp2420
a(I327
I101
tp2421
a(I327
I182
tp2422
a(I327
I215
tp2423
a(I327
I235
tp2424
a(I327
I245
tp2425
a(I327
I340
tp2426
a(I327
I380
tp2427
a(I327
I391
tp2428
a(I327
I419
tp2429
a(I327
I475
tp2430
a(I328
I101
tp2431
a(I328
I195
tp2432
a(I328
I217
tp2433
a(I328
I229
tp2434
a(I328
I239
tp2435
a(I328
I337
tp2436
a(I328
I391
tp2437
a(I328
I420
tp2438
a(I328
I476
tp2439
a(I329
I157
tp2440
a(I329
I213
tp2441
a(I329
I228
tp2442
a(I329
I240
tp2443
a(I329
I392
tp2444
a(I329
I422
tp2445
a(I329
I478
tp2446
a(I330
I179
tp2447
a(I330
I222
tp2448
a(I330
I232
tp2449
a(I330
I337
tp2450
a(I330
I380
tp2451
a(I330
I418
tp2452
a(I330
I428
tp2453
a(I331
I156
tp2454
a(I331
I223
tp2455
a(I331
I299
tp2456
a(I331
I378
tp2457
a(I331
I394
tp2458
a(I331
I424
tp2459
a(I331
I480
tp2460
a(I332
I197
tp2461
a(I332
I296
tp2462
a(I332
I306
tp2463
a(I332
I316
tp2464
a(I332
I326
tp2465
a(I332
I349
tp2466
a(I332
I379
tp2467
a(I332
I395
tp2468
a(I332
I425
tp2469
a(I333
I153
tp2470
a(I333
I198
tp2471
a(I333
I296
tp2472
a(I333
I306
tp2473
a(I333
I316
tp2474
a(I333
I326
tp2475
a(I333
I336
tp2476
a(I333
I374
tp2477
a(I333
I384
tp2478
a(I333
I417
tp2479
a(I333
I427
tp2480
a(I334
I155
tp2481
a(I334
I291
tp2482
a(I334
I309
tp2483
a(I334
I319
tp2484
a(I334
I329
tp2485
a(I334
I351
tp2486
a(I334
I379
tp2487
a(I334
I389
tp2488
a(I334
I425
tp2489
a(I335
I153
tp2490
a(I335
I214
tp2491
a(I335
I336
tp2492
a(I335
I369
tp2493
a(I335
I385
tp2494
a(I335
I422
tp2495
a(I335
I478
tp2496
a(I336
I180
tp2497
a(I336
I291
tp2498
a(I336
I356
tp2499
a(I336
I381
tp2500
a(I336
I420
tp2501
a(I336
I476
tp2502
a(I337
I178
tp2503
a(I337
I291
tp2504
a(I337
I336
tp2505
a(I337
I361
tp2506
a(I337
I371
tp2507
a(I337
I392
tp2508
a(I337
I425
tp2509
a(I338
I153
tp2510
a(I338
I216
tp2511
a(I338
I361
tp2512
a(I338
I371
tp2513
a(I338
I418
tp2514
a(I338
I428
tp2515
a(I339
I155
tp2516
a(I339
I309
tp2517
a(I339
I363
tp2518
a(I339
I390
tp2519
a(I339
I419
tp2520
a(I339
I475
tp2521
a(I340
I155
tp2522
a(I340
I291
tp2523
a(I340
I309
tp2524
a(I340
I363
tp2525
a(I340
I391
tp2526
a(I340
I418
tp2527
a(I340
I428
tp2528
a(I341
I154
tp2529
a(I341
I291
tp2530
a(I341
I361
tp2531
a(I341
I395
tp2532
a(I341
I422
tp2533
a(I341
I477
tp2534
a(I342
I177
tp2535
a(I342
I297
tp2536
a(I342
I382
tp2537
a(I342
I421
tp2538
a(I342
I476
tp2539
a(I343
I176
tp2540
a(I343
I293
tp2541
a(I343
I360
tp2542
a(I343
I390
tp2543
a(I343
I422
tp2544
a(I343
I477
tp2545
a(I344
I178
tp2546
a(I344
I296
tp2547
a(I344
I388
tp2548
a(I344
I423
tp2549
a(I344
I478
tp2550
a(I345
I200
tp2551
a(I345
I362
tp2552
a(I345
I387
tp2553
a(I345
I421
tp2554
a(I345
I476
tp2555
a(I346
I177
tp2556
a(I346
I362
tp2557
a(I346
I384
tp2558
a(I346
I417
tp2559
a(I346
I427
tp2560
a(I347
I153
tp2561
a(I347
I220
tp2562
a(I347
I369
tp2563
a(I347
I385
tp2564
a(I347
I417
tp2565
a(I347
I427
tp2566
a(I347
I480
tp2567
a(I348
I220
tp2568
a(I348
I377
tp2569
a(I348
I393
tp2570
a(I348
I424
tp2571
a(I348
I477
tp2572
a(I349
I201
tp2573
a(I349
I371
tp2574
a(I349
I395
tp2575
a(I349
I426
tp2576
a(I349
I480
tp2577
a(I350
I223
tp2578
a(I350
I373
tp2579
a(I350
I418
tp2580
a(I350
I428
tp2581
a(I350
I482
tp2582
a(I351
I343
tp2583
a(I351
I376
tp2584
a(I351
I424
tp2585
a(I351
I478
tp2586
a(I352
I176
tp2587
a(I352
I369
tp2588
a(I352
I418
tp2589
a(I352
I428
tp2590
a(I352
I482
tp2591
a(I353
I174
tp2592
a(I353
I345
tp2593
a(I353
I397
tp2594
a(I353
I426
tp2595
a(I353
I480
tp2596
a(I353
I493
tp2597
a(I354
I224
tp2598
a(I354
I376
tp2599
a(I354
I424
tp2600
a(I354
I478
tp2601
a(I354
I488
tp2602
a(I355
I176
tp2603
a(I355
I370
tp2604
a(I355
I422
tp2605
a(I355
I476
tp2606
a(I355
I486
tp2607
a(I356
I172
tp2608
a(I356
I347
tp2609
a(I356
I397
tp2610
a(I356
I425
tp2611
a(I356
I479
tp2612
a(I356
I489
tp2613
a(I356
I499
tp2614
a(I357
I226
tp2615
a(I357
I365
tp2616
a(I357
I399
tp2617
a(I357
I426
tp2618
a(I357
I480
tp2619
a(I357
I490
tp2620
a(I357
I500
tp2621
a(I358
I206
tp2622
a(I358
I365
tp2623
a(I358
I419
tp2624
a(I358
I429
tp2625
a(I358
I482
tp2626
a(I359
I174
tp2627
a(I359
I361
tp2628
a(I359
I396
tp2629
a(I359
I424
tp2630
a(I359
I477
tp2631
a(I359
I489
tp2632
a(I360
I231
tp2633
a(I360
I361
tp2634
a(I360
I394
tp2635
a(I360
I422
tp2636
a(I360
I475
tp2637
a(I360
I489
tp2638
a(I361
I207
tp2639
a(I361
I359
tp2640
a(I361
I395
tp2641
a(I361
I423
tp2642
a(I361
I476
tp2643
a(I362
I171
tp2644
a(I362
I266
tp2645
a(I362
I378
tp2646
a(I362
I423
tp2647
a(I362
I477
tp2648
a(I363
I172
tp2649
a(I363
I266
tp2650
a(I363
I397
tp2651
a(I363
I425
tp2652
a(I363
I478
tp2653
a(I364
I171
tp2654
a(I364
I233
tp2655
a(I364
I418
tp2656
a(I364
I428
tp2657
a(I364
I500
tp2658
a(I365
I231
tp2659
a(I365
I396
tp2660
a(I365
I424
tp2661
a(I365
I474
tp2662
a(I366
I171
tp2663
a(I366
I373
tp2664
a(I366
I419
tp2665
a(I366
I429
tp2666
a(I366
I479
tp2667
a(I367
I173
tp2668
a(I367
I375
tp2669
a(I367
I418
tp2670
a(I367
I428
tp2671
a(I367
I476
tp2672
a(I368
I172
tp2673
a(I368
I374
tp2674
a(I368
I419
tp2675
a(I368
I429
tp2676
a(I368
I477
tp2677
a(I369
I210
tp2678
a(I369
I384
tp2679
a(I369
I394
tp2680
a(I369
I422
tp2681
a(I369
I469
tp2682
a(I369
I479
tp2683
a(I370
I210
tp2684
a(I370
I372
tp2685
a(I370
I388
tp2686
a(I370
I417
tp2687
a(I370
I427
tp2688
a(I370
I469
tp2689
a(I370
I479
tp2690
a(I371
I238
tp2691
a(I371
I389
tp2692
a(I371
I422
tp2693
a(I371
I432
tp2694
a(I371
I467
tp2695
a(I371
I477
tp2696
a(I372
I211
tp2697
a(I372
I347
tp2698
a(I372
I374
tp2699
a(I372
I422
tp2700
a(I372
I432
tp2701
a(I372
I442
tp2702
a(I372
I452
tp2703
a(I372
I465
tp2704
a(I372
I475
tp2705
a(I373
I348
tp2706
a(I373
I418
tp2707
a(I373
I428
tp2708
a(I373
I438
tp2709
a(I373
I448
tp2710
a(I373
I458
tp2711
a(I373
I468
tp2712
a(I373
I478
tp2713
a(I374
I345
tp2714
a(I374
I397
tp2715
a(I374
I426
tp2716
a(I374
I436
tp2717
a(I374
I446
tp2718
a(I374
I456
tp2719
a(I374
I466
tp2720
a(I374
I476
tp2721
a(I375
I396
tp2722
a(I375
I425
tp2723
a(I375
I435
tp2724
a(I375
I445
tp2725
a(I375
I455
tp2726
a(I375
I465
tp2727
a(I375
I475
tp2728
a(I376
I371
tp2729
a(I376
I423
tp2730
a(I376
I433
tp2731
a(I376
I443
tp2732
a(I376
I453
tp2733
a(I376
I463
tp2734
a(I376
I473
tp2735
a(I377
I368
tp2736
a(I377
I421
tp2737
a(I377
I431
tp2738
a(I377
I441
tp2739
a(I377
I451
tp2740
a(I377
I461
tp2741
a(I377
I471
tp2742
a(I378
I368
tp2743
a(I378
I423
tp2744
a(I378
I433
tp2745
a(I378
I443
tp2746
a(I378
I453
tp2747
a(I378
I463
tp2748
a(I378
I473
tp2749
a(I379
I368
tp2750
a(I379
I423
tp2751
a(I379
I433
tp2752
a(I379
I443
tp2753
a(I379
I453
tp2754
a(I379
I463
tp2755
a(I379
I473
tp2756
a(I380
I367
tp2757
a(I380
I423
tp2758
a(I380
I433
tp2759
a(I380
I443
tp2760
a(I380
I453
tp2761
a(I380
I463
tp2762
a(I380
I473
tp2763
a(I381
I366
tp2764
a(I381
I423
tp2765
a(I381
I433
tp2766
a(I381
I443
tp2767
a(I381
I453
tp2768
a(I381
I463
tp2769
a(I381
I473
tp2770
a(I382
I366
tp2771
a(I382
I423
tp2772
a(I382
I433
tp2773
a(I382
I443
tp2774
a(I382
I453
tp2775
a(I382
I463
tp2776
a(I382
I473
tp2777
a(I383
I365
tp2778
a(I383
I424
tp2779
a(I383
I434
tp2780
a(I383
I444
tp2781
a(I383
I454
tp2782
a(I383
I464
tp2783
a(I383
I474
tp2784
a(I384
I364
tp2785
a(I384
I423
tp2786
a(I384
I433
tp2787
a(I384
I443
tp2788
a(I384
I453
tp2789
a(I384
I463
tp2790
a(I384
I473
tp2791
a(I385
I364
tp2792
a(I385
I424
tp2793
a(I385
I434
tp2794
a(I385
I444
tp2795
a(I385
I454
tp2796
a(I385
I464
tp2797
a(I385
I474
tp2798
a(I386
I363
tp2799
a(I386
I423
tp2800
a(I386
I433
tp2801
a(I386
I443
tp2802
a(I386
I453
tp2803
a(I386
I463
tp2804
a(I386
I473
tp2805
a(I387
I360
tp2806
a(I387
I420
tp2807
a(I387
I430
tp2808
a(I387
I440
tp2809
a(I387
I450
tp2810
a(I387
I460
tp2811
a(I387
I470
tp2812
a(I388
I74
tp2813
a(I388
I420
tp2814
a(I388
I430
tp2815
a(I388
I440
tp2816
a(I388
I450
tp2817
a(I388
I460
tp2818
a(I388
I470
tp2819
a(I389
I73
tp2820
a(I389
I420
tp2821
a(I389
I430
tp2822
a(I389
I440
tp2823
a(I389
I450
tp2824
a(I389
I460
tp2825
a(I389
I470
tp2826
a(I390
I71
tp2827
a(I390
I396
tp2828
a(I390
I424
tp2829
a(I390
I434
tp2830
a(I390
I444
tp2831
a(I390
I454
tp2832
a(I390
I464
tp2833
a(I390
I474
tp2834
a(I391
I357
tp2835
a(I391
I421
tp2836
a(I391
I431
tp2837
a(I391
I441
tp2838
a(I391
I451
tp2839
a(I391
I461
tp2840
a(I391
I471
tp2841
a(I392
I70
tp2842
a(I392
I418
tp2843
a(I392
I428
tp2844
a(I392
I438
tp2845
a(I392
I448
tp2846
a(I392
I458
tp2847
a(I392
I468
tp2848
a(I392
I478
tp2849
a(I393
I395
tp2850
a(I393
I423
tp2851
a(I393
I433
tp2852
a(I393
I443
tp2853
a(I393
I453
tp2854
a(I393
I463
tp2855
a(I393
I473
tp2856
a(I394
I69
tp2857
a(I394
I419
tp2858
a(I394
I429
tp2859
a(I394
I439
tp2860
a(I394
I449
tp2861
a(I394
I459
tp2862
a(I394
I469
tp2863
a(I395
I66
tp2864
a(I395
I420
tp2865
a(I395
I430
tp2866
a(I395
I440
tp2867
a(I395
I450
tp2868
a(I395
I460
tp2869
a(I395
I470
tp2870
a(I396
I395
tp2871
a(I396
I423
tp2872
a(I396
I433
tp2873
a(I396
I443
tp2874
a(I396
I453
tp2875
a(I396
I463
tp2876
a(I396
I473
tp2877
a(I397
I397
tp2878
a(I397
I425
tp2879
a(I397
I435
tp2880
a(I397
I445
tp2881
a(I397
I455
tp2882
a(I397
I465
tp2883
a(I397
I475
tp2884
a(I398
I417
tp2885
a(I398
I427
tp2886
a(I398
I437
tp2887
a(I398
I447
tp2888
a(I398
I457
tp2889
a(I398
I467
tp2890
a(I398
I477
tp2891
a(I399
I417
tp2892
a(I399
I427
tp2893
a(I399
I437
tp2894
a(I399
I447
tp2895
a(I399
I457
tp2896
a(I399
I467
tp2897
a(I399
I477
tp2898
a(I400
I417
tp2899
a(I400
I427
tp2900
a(I400
I437
tp2901
a(I400
I447
tp2902
a(I400
I457
tp2903
a(I400
I467
tp2904
a(I400
I477
tp2905
a(I401
I416
tp2906
a(I401
I426
tp2907
a(I401
I436
tp2908
a(I401
I446
tp2909
a(I401
I456
tp2910
a(I401
I466
tp2911
a(I401
I476
tp2912
a(I402
I416
tp2913
a(I402
I426
tp2914
a(I402
I436
tp2915
a(I402
I446
tp2916
a(I402
I456
tp2917
a(I402
I466
tp2918
a(I402
I476
tp2919
a(I403
I417
tp2920
a(I403
I427
tp2921
a(I403
I437
tp2922
a(I403
I447
tp2923
a(I403
I457
tp2924
a(I403
I467
tp2925
a(I403
I477
tp2926
a(I404
I415
tp2927
a(I404
I425
tp2928
a(I404
I435
tp2929
a(I404
I445
tp2930
a(I404
I455
tp2931
a(I404
I465
tp2932
a(I404
I475
tp2933
a(I405
I417
tp2934
a(I405
I427
tp2935
a(I405
I437
tp2936
a(I405
I447
tp2937
a(I405
I457
tp2938
a(I405
I467
tp2939
a(I405
I477
tp2940
a(I406
I419
tp2941
a(I406
I429
tp2942
a(I406
I439
tp2943
a(I406
I449
tp2944
a(I406
I459
tp2945
a(I406
I469
tp2946
a(I406
I479
tp2947
a(I407
I420
tp2948
a(I407
I430
tp2949
a(I407
I440
tp2950
a(I407
I450
tp2951
a(I407
I460
tp2952
a(I407
I470
tp2953
a(I408
I395
tp2954
a(I408
I422
tp2955
a(I408
I432
tp2956
a(I408
I442
tp2957
a(I408
I452
tp2958
a(I408
I462
tp2959
a(I408
I472
tp2960
a(I409
I396
tp2961
a(I409
I423
tp2962
a(I409
I433
tp2963
a(I409
I443
tp2964
a(I409
I453
tp2965
a(I409
I463
tp2966
a(I409
I473
tp2967
a(I410
I396
tp2968
a(I410
I423
tp2969
a(I410
I433
tp2970
a(I410
I443
tp2971
a(I410
I453
tp2972
a(I410
I463
tp2973
a(I410
I473
tp2974
a(I411
I326
tp2975
a(I411
I420
tp2976
a(I411
I430
tp2977
a(I411
I440
tp2978
a(I411
I450
tp2979
a(I411
I460
tp2980
a(I411
I470
tp2981
a(I412
I325
tp2982
a(I412
I419
tp2983
a(I412
I429
tp2984
a(I412
I439
tp2985
a(I412
I449
tp2986
a(I412
I459
tp2987
a(I412
I469
tp2988
a(I412
I479
tp2989
a(I413
I417
tp2990
a(I413
I427
tp2991
a(I413
I437
tp2992
a(I413
I447
tp2993
a(I413
I457
tp2994
a(I413
I467
tp2995
a(I413
I477
tp2996
a(I414
I396
tp2997
a(I414
I423
tp2998
a(I414
I433
tp2999
a(I414
I443
tp3000
a(I414
I453
tp3001
a(I414
I463
tp3002
a(I414
I473
tp3003
a(I415
I326
tp3004
a(I415
I419
tp3005
a(I415
I429
tp3006
a(I415
I439
tp3007
a(I415
I449
tp3008
a(I415
I459
tp3009
a(I415
I469
tp3010
a(I415
I479
tp3011
a(I416
I415
tp3012
a(I416
I425
tp3013
a(I416
I435
tp3014
a(I416
I445
tp3015
a(I416
I455
tp3016
a(I416
I465
tp3017
a(I416
I475
tp3018
a(I417
I329
tp3019
a(I417
I419
tp3020
a(I417
I429
tp3021
a(I417
I439
tp3022
a(I417
I449
tp3023
a(I417
I459
tp3024
a(I417
I469
tp3025
a(I417
I479
tp3026
a(I418
I397
tp3027
a(I418
I423
tp3028
a(I418
I433
tp3029
a(I418
I443
tp3030
a(I418
I453
tp3031
a(I418
I463
tp3032
a(I418
I473
tp3033
a(I419
I329
tp3034
a(I419
I418
tp3035
a(I419
I428
tp3036
a(I419
I438
tp3037
a(I419
I448
tp3038
a(I419
I458
tp3039
a(I419
I468
tp3040
a(I419
I478
tp3041
a(I420
I415
tp3042
a(I420
I425
tp3043
a(I420
I435
tp3044
a(I420
I445
tp3045
a(I420
I455
tp3046
a(I420
I465
tp3047
a(I420
I475
tp3048
a(I421
I354
tp3049
a(I421
I420
tp3050
a(I421
I430
tp3051
a(I421
I440
tp3052
a(I421
I450
tp3053
a(I421
I460
tp3054
a(I421
I470
tp3055
a(I422
I114
tp3056
a(I422
I415
tp3057
a(I422
I425
tp3058
a(I422
I435
tp3059
a(I422
I445
tp3060
a(I422
I455
tp3061
a(I422
I465
tp3062
a(I422
I475
tp3063
a(I423
I351
tp3064
a(I423
I420
tp3065
a(I423
I430
tp3066
a(I423
I440
tp3067
a(I423
I450
tp3068
a(I423
I460
tp3069
a(I423
I470
tp3070
a(I424
I114
tp3071
a(I424
I415
tp3072
a(I424
I425
tp3073
a(I424
I435
tp3074
a(I424
I445
tp3075
a(I424
I455
tp3076
a(I424
I465
tp3077
a(I424
I475
tp3078
a(I425
I396
tp3079
a(I425
I422
tp3080
a(I425
I432
tp3081
a(I425
I442
tp3082
a(I425
I452
tp3083
a(I425
I462
tp3084
a(I425
I472
tp3085
a(I426
I334
tp3086
a(I426
I418
tp3087
a(I426
I428
tp3088
a(I426
I438
tp3089
a(I426
I448
tp3090
a(I426
I458
tp3091
a(I426
I468
tp3092
a(I426
I478
tp3093
a(I427
I414
tp3094
a(I427
I424
tp3095
a(I427
I434
tp3096
a(I427
I444
tp3097
a(I427
I454
tp3098
a(I427
I464
tp3099
a(I427
I474
tp3100
a(I428
I347
tp3101
a(I428
I419
tp3102
a(I428
I429
tp3103
a(I428
I439
tp3104
a(I428
I449
tp3105
a(I428
I459
tp3106
a(I428
I469
tp3107
a(I429
I113
tp3108
a(I429
I416
tp3109
a(I429
I426
tp3110
a(I429
I436
tp3111
a(I429
I446
tp3112
a(I429
I456
tp3113
a(I429
I466
tp3114
a(I429
I476
tp3115
a(I430
I395
tp3116
a(I430
I421
tp3117
a(I430
I431
tp3118
a(I430
I441
tp3119
a(I430
I451
tp3120
a(I430
I461
tp3121
a(I430
I471
tp3122
a(I431
I335
tp3123
a(I431
I414
tp3124
a(I431
I424
tp3125
a(I431
I434
tp3126
a(I431
I444
tp3127
a(I431
I454
tp3128
a(I431
I464
tp3129
a(I431
I474
tp3130
a(I432
I342
tp3131
a(I432
I418
tp3132
a(I432
I428
tp3133
a(I432
I438
tp3134
a(I432
I448
tp3135
a(I432
I458
tp3136
a(I432
I468
tp3137
a(I432
I478
tp3138
a(I433
I342
tp3139
a(I433
I419
tp3140
a(I433
I429
tp3141
a(I433
I439
tp3142
a(I433
I449
tp3143
a(I433
I459
tp3144
a(I433
I469
tp3145
a(I434
I112
tp3146
a(I434
I396
tp3147
a(I434
I422
tp3148
a(I434
I432
tp3149
a(I434
I442
tp3150
a(I434
I452
tp3151
a(I434
I462
tp3152
a(I434
I472
tp3153
a(I435
I339
tp3154
a(I435
I416
tp3155
a(I435
I426
tp3156
a(I435
I436
tp3157
a(I435
I446
tp3158
a(I435
I456
tp3159
a(I435
I466
tp3160
a(I435
I476
tp3161
a(I436
I395
tp3162
a(I436
I421
tp3163
a(I436
I431
tp3164
a(I436
I441
tp3165
a(I436
I451
tp3166
a(I436
I461
tp3167
a(I436
I471
tp3168
a(I437
I340
tp3169
a(I437
I419
tp3170
a(I437
I429
tp3171
a(I437
I439
tp3172
a(I437
I449
tp3173
a(I437
I459
tp3174
a(I437
I469
tp3175
a(I438
I112
tp3176
a(I438
I418
tp3177
a(I438
I428
tp3178
a(I438
I438
tp3179
a(I438
I448
tp3180
a(I438
I458
tp3181
a(I438
I468
tp3182
a(I438
I478
tp3183
a(I439
I416
tp3184
a(I439
I426
tp3185
a(I439
I436
tp3186
a(I439
I446
tp3187
a(I439
I456
tp3188
a(I439
I466
tp3189
a(I439
I476
tp3190
a(I440
I414
tp3191
a(I440
I424
tp3192
a(I440
I434
tp3193
a(I440
I444
tp3194
a(I440
I454
tp3195
a(I440
I464
tp3196
a(I440
I474
tp3197
a(I441
I122
tp3198
a(I441
I419
tp3199
a(I441
I429
tp3200
a(I441
I439
tp3201
a(I441
I449
tp3202
a(I441
I459
tp3203
a(I441
I469
tp3204
a(I441
I479
tp3205
a(I442
I395
tp3206
a(I442
I422
tp3207
a(I442
I432
tp3208
a(I442
I442
tp3209
a(I442
I452
tp3210
a(I442
I462
tp3211
a(I442
I472
tp3212
a(I442
I482
tp3213
a(I443
I396
tp3214
a(I443
I423
tp3215
a(I443
I433
tp3216
a(I443
I443
tp3217
a(I443
I453
tp3218
a(I443
I463
tp3219
a(I443
I473
tp3220
a(I443
I483
tp3221
a(I444
I394
tp3222
a(I444
I421
tp3223
a(I444
I431
tp3224
a(I444
I441
tp3225
a(I444
I451
tp3226
a(I444
I461
tp3227
a(I444
I471
tp3228
a(I444
I481
tp3229
a(I444
I491
tp3230
a(I445
I416
tp3231
a(I445
I426
tp3232
a(I445
I436
tp3233
a(I445
I446
tp3234
a(I445
I456
tp3235
a(I445
I466
tp3236
a(I445
I476
tp3237
a(I445
I489
tp3238
a(I446
I120
tp3239
a(I446
I419
tp3240
a(I446
I429
tp3241
a(I446
I439
tp3242
a(I446
I449
tp3243
a(I446
I459
tp3244
a(I446
I469
tp3245
a(I446
I479
tp3246
a(I447
I116
tp3247
a(I447
I416
tp3248
a(I447
I426
tp3249
a(I447
I436
tp3250
a(I447
I446
tp3251
a(I447
I456
tp3252
a(I447
I466
tp3253
a(I447
I476
tp3254
a(I447
I493
tp3255
a(I448
I395
tp3256
a(I448
I422
tp3257
a(I448
I432
tp3258
a(I448
I442
tp3259
a(I448
I452
tp3260
a(I448
I462
tp3261
a(I448
I472
tp3262
a(I448
I482
tp3263
a(I449
I115
tp3264
a(I449
I419
tp3265
a(I449
I429
tp3266
a(I449
I439
tp3267
a(I449
I449
tp3268
a(I449
I459
tp3269
a(I449
I469
tp3270
a(I449
I479
tp3271
a(I449
I496
tp3272
a(I450
I419
tp3273
a(I450
I429
tp3274
a(I450
I439
tp3275
a(I450
I449
tp3276
a(I450
I459
tp3277
a(I450
I469
tp3278
a(I450
I487
tp3279
a(I450
I500
tp3280
a(I451
I420
tp3281
a(I451
I430
tp3282
a(I451
I440
tp3283
a(I451
I450
tp3284
a(I451
I460
tp3285
a(I451
I470
tp3286
a(I451
I489
tp3287
a(I451
I499
tp3288
a(I452
I418
tp3289
a(I452
I428
tp3290
a(I452
I438
tp3291
a(I452
I448
tp3292
a(I452
I458
tp3293
a(I452
I468
tp3294
a(I452
I478
tp3295
a(I452
I502
tp3296
a(I453
I419
tp3297
a(I453
I429
tp3298
a(I453
I439
tp3299
a(I453
I449
tp3300
a(I453
I459
tp3301
a(I453
I469
tp3302
a(I453
I494
tp3303
a(I454
I395
tp3304
a(I454
I421
tp3305
a(I454
I431
tp3306
a(I454
I441
tp3307
a(I454
I451
tp3308
a(I454
I461
tp3309
a(I454
I471
tp3310
a(I454
I500
tp3311
a(I455
I417
tp3312
a(I455
I427
tp3313
a(I455
I437
tp3314
a(I455
I447
tp3315
a(I455
I457
tp3316
a(I455
I467
tp3317
a(I455
I477
tp3318
a(I456
I415
tp3319
a(I456
I425
tp3320
a(I456
I435
tp3321
a(I456
I445
tp3322
a(I456
I455
tp3323
a(I456
I465
tp3324
a(I456
I475
tp3325
a(I457
I413
tp3326
a(I457
I423
tp3327
a(I457
I433
tp3328
a(I457
I443
tp3329
a(I457
I453
tp3330
a(I457
I463
tp3331
a(I457
I473
tp3332
a(I458
I414
tp3333
a(I458
I424
tp3334
a(I458
I434
tp3335
a(I458
I444
tp3336
a(I458
I454
tp3337
a(I458
I464
tp3338
a(I458
I474
tp3339
a(I459
I416
tp3340
a(I459
I426
tp3341
a(I459
I436
tp3342
a(I459
I446
tp3343
a(I459
I456
tp3344
a(I459
I466
tp3345
a(I459
I476
tp3346
a(I460
I418
tp3347
a(I460
I428
tp3348
a(I460
I438
tp3349
a(I460
I448
tp3350
a(I460
I458
tp3351
a(I460
I468
tp3352
a(I461
I413
tp3353
a(I461
I423
tp3354
a(I461
I433
tp3355
a(I461
I443
tp3356
a(I461
I453
tp3357
a(I461
I463
tp3358
a(I461
I473
tp3359
a(I462
I419
tp3360
a(I462
I429
tp3361
a(I462
I439
tp3362
a(I462
I449
tp3363
a(I462
I459
tp3364
a(I462
I469
tp3365
a(I463
I417
tp3366
a(I463
I427
tp3367
a(I463
I437
tp3368
a(I463
I447
tp3369
a(I463
I457
tp3370
a(I463
I467
tp3371
a(I464
I416
tp3372
a(I464
I426
tp3373
a(I464
I436
tp3374
a(I464
I446
tp3375
a(I464
I456
tp3376
a(I465
I413
tp3377
a(I465
I423
tp3378
a(I465
I433
tp3379
a(I465
I443
tp3380
a(I465
I453
tp3381
a(I466
I419
tp3382
a(I466
I429
tp3383
a(I466
I439
tp3384
a(I466
I449
tp3385
a(I467
I417
tp3386
a(I467
I427
tp3387
a(I467
I437
tp3388
a(I468
I394
tp3389
a(I468
I421
tp3390
a(I468
I431
tp3391
a(I468
I441
tp3392
a(I469
I418
tp3393
a(I469
I428
tp3394
a(I469
I438
tp3395
a(I470
I418
tp3396
a(I470
I428
tp3397
a(I471
I414
tp3398
a(I471
I424
tp3399
a(I472
I414
tp3400
a(I472
I424
tp3401
a(I473
I419
tp3402
a(I474
I415
tp3403
a(I475
I415
tp3404
a(I477
I396
tp3405
a(I478
I415
tp3406
a(I480
I396
tp3407
a(I481
I414
tp3408
a(I483
I394
tp3409
a(I484
I395
tp3410
a(I485
I396
tp3411
a(I485
I414
tp3412
a(I486
I401
tp3413
a(I486
I411
tp3414
a(I487
I398
tp3415
a(I487
I408
tp3416
a(I488
I395
tp3417
a(I488
I405
tp3418
a(I488
I415
tp3419
a(I489
I405
tp3420
a(I490
I403
tp3421
a(I492
I396
tp3422
a.